
testcase.atsgx:     file format elf64-x86-64


Disassembly of section .text:

0000000000201000 <_start>:
  201000:	31 ed                	xor    %ebp,%ebp
  201002:	49 89 d1             	mov    %rdx,%r9
  201005:	5e                   	pop    %rsi
  201006:	48 89 e2             	mov    %rsp,%rdx
  201009:	48 83 e4 f0          	and    $0xfffffffffffffff0,%rsp
  20100d:	50                   	push   %rax
  20100e:	54                   	push   %rsp
  20100f:	49 c7 c0 a0 10 20 00 	mov    $0x2010a0,%r8
  201016:	48 c7 c1 30 10 20 00 	mov    $0x201030,%rcx
  20101d:	48 c7 c7 d0 30 20 00 	mov    $0x2030d0,%rdi
  201024:	e8 37 22 00 00       	callq  203260 <__libc_start_main@plt>
  201029:	f4                   	hlt    
  20102a:	cc                   	int3   
  20102b:	cc                   	int3   
  20102c:	cc                   	int3   
  20102d:	cc                   	int3   
  20102e:	cc                   	int3   
  20102f:	cc                   	int3   

0000000000201030 <__libc_csu_init>:
  201030:	41 57                	push   %r15
  201032:	41 56                	push   %r14
  201034:	41 89 ff             	mov    %edi,%r15d
  201037:	41 55                	push   %r13
  201039:	41 54                	push   %r12
  20103b:	4c 8d 25 ce 2f 00 00 	lea    0x2fce(%rip),%r12        # 204010 <__frame_dummy_init_array_entry>
  201042:	55                   	push   %rbp
  201043:	48 8d 2d ce 2f 00 00 	lea    0x2fce(%rip),%rbp        # 204018 <__init_array_end>
  20104a:	53                   	push   %rbx
  20104b:	49 89 f6             	mov    %rsi,%r14
  20104e:	49 89 d5             	mov    %rdx,%r13
  201051:	4c 29 e5             	sub    %r12,%rbp
  201054:	48 83 ec 08          	sub    $0x8,%rsp
  201058:	48 c1 fd 03          	sar    $0x3,%rbp
  20105c:	e8 c7 21 00 00       	callq  203228 <_init>
  201061:	48 85 ed             	test   %rbp,%rbp
  201064:	74 20                	je     201086 <__libc_csu_init+0x56>
  201066:	31 db                	xor    %ebx,%ebx
  201068:	0f 1f 84 00 00 00 00 	nopl   0x0(%rax,%rax,1)
  20106f:	00 
  201070:	4c 89 ea             	mov    %r13,%rdx
  201073:	4c 89 f6             	mov    %r14,%rsi
  201076:	44 89 ff             	mov    %r15d,%edi
  201079:	41 ff 14 dc          	callq  *(%r12,%rbx,8)
  20107d:	48 83 c3 01          	add    $0x1,%rbx
  201081:	48 39 eb             	cmp    %rbp,%rbx
  201084:	75 ea                	jne    201070 <__libc_csu_init+0x40>
  201086:	48 83 c4 08          	add    $0x8,%rsp
  20108a:	5b                   	pop    %rbx
  20108b:	5d                   	pop    %rbp
  20108c:	41 5c                	pop    %r12
  20108e:	41 5d                	pop    %r13
  201090:	41 5e                	pop    %r14
  201092:	41 5f                	pop    %r15
  201094:	c3                   	retq   
  201095:	90                   	nop
  201096:	66 2e 0f 1f 84 00 00 	nopw   %cs:0x0(%rax,%rax,1)
  20109d:	00 00 00 

00000000002010a0 <__libc_csu_fini>:
  2010a0:	f3 c3                	repz retq 
  2010a2:	cc                   	int3   
  2010a3:	cc                   	int3   
  2010a4:	cc                   	int3   
  2010a5:	cc                   	int3   
  2010a6:	cc                   	int3   
  2010a7:	cc                   	int3   
  2010a8:	cc                   	int3   
  2010a9:	cc                   	int3   
  2010aa:	cc                   	int3   
  2010ab:	cc                   	int3   
  2010ac:	cc                   	int3   
  2010ad:	cc                   	int3   
  2010ae:	cc                   	int3   
  2010af:	cc                   	int3   

00000000002010b0 <deregister_tm_clones>:
  2010b0:	b8 17 50 20 00       	mov    $0x205017,%eax
  2010b5:	55                   	push   %rbp
  2010b6:	48 2d 10 50 20 00    	sub    $0x205010,%rax
  2010bc:	48 83 f8 0e          	cmp    $0xe,%rax
  2010c0:	48 89 e5             	mov    %rsp,%rbp
  2010c3:	76 1b                	jbe    2010e0 <deregister_tm_clones+0x30>
  2010c5:	b8 00 00 00 00       	mov    $0x0,%eax
  2010ca:	48 85 c0             	test   %rax,%rax
  2010cd:	74 11                	je     2010e0 <deregister_tm_clones+0x30>
  2010cf:	5d                   	pop    %rbp
  2010d0:	bf 10 50 20 00       	mov    $0x205010,%edi
  2010d5:	ff e0                	jmpq   *%rax
  2010d7:	66 0f 1f 84 00 00 00 	nopw   0x0(%rax,%rax,1)
  2010de:	00 00 
  2010e0:	5d                   	pop    %rbp
  2010e1:	c3                   	retq   
  2010e2:	0f 1f 40 00          	nopl   0x0(%rax)
  2010e6:	66 2e 0f 1f 84 00 00 	nopw   %cs:0x0(%rax,%rax,1)
  2010ed:	00 00 00 

00000000002010f0 <register_tm_clones>:
  2010f0:	be 10 50 20 00       	mov    $0x205010,%esi
  2010f5:	55                   	push   %rbp
  2010f6:	48 81 ee 10 50 20 00 	sub    $0x205010,%rsi
  2010fd:	48 c1 fe 03          	sar    $0x3,%rsi
  201101:	48 89 e5             	mov    %rsp,%rbp
  201104:	48 89 f0             	mov    %rsi,%rax
  201107:	48 c1 e8 3f          	shr    $0x3f,%rax
  20110b:	48 01 c6             	add    %rax,%rsi
  20110e:	48 d1 fe             	sar    %rsi
  201111:	74 15                	je     201128 <register_tm_clones+0x38>
  201113:	b8 00 00 00 00       	mov    $0x0,%eax
  201118:	48 85 c0             	test   %rax,%rax
  20111b:	74 0b                	je     201128 <register_tm_clones+0x38>
  20111d:	5d                   	pop    %rbp
  20111e:	bf 10 50 20 00       	mov    $0x205010,%edi
  201123:	ff e0                	jmpq   *%rax
  201125:	0f 1f 00             	nopl   (%rax)
  201128:	5d                   	pop    %rbp
  201129:	c3                   	retq   
  20112a:	66 0f 1f 44 00 00    	nopw   0x0(%rax,%rax,1)

0000000000201130 <__do_global_dtors_aux>:
  201130:	80 3d 09 3f 00 00 00 	cmpb   $0x0,0x3f09(%rip)        # 205040 <completed.7594>
  201137:	75 11                	jne    20114a <__do_global_dtors_aux+0x1a>
  201139:	55                   	push   %rbp
  20113a:	48 89 e5             	mov    %rsp,%rbp
  20113d:	e8 6e ff ff ff       	callq  2010b0 <deregister_tm_clones>
  201142:	5d                   	pop    %rbp
  201143:	c6 05 f6 3e 00 00 01 	movb   $0x1,0x3ef6(%rip)        # 205040 <completed.7594>
  20114a:	f3 c3                	repz retq 
  20114c:	0f 1f 40 00          	nopl   0x0(%rax)

0000000000201150 <frame_dummy>:
  201150:	bf 08 40 20 00       	mov    $0x204008,%edi
  201155:	48 83 3f 00          	cmpq   $0x0,(%rdi)
  201159:	75 05                	jne    201160 <frame_dummy+0x10>
  20115b:	eb 93                	jmp    2010f0 <register_tm_clones>
  20115d:	0f 1f 00             	nopl   (%rax)
  201160:	b8 00 00 00 00       	mov    $0x0,%eax
  201165:	48 85 c0             	test   %rax,%rax
  201168:	74 f1                	je     20115b <frame_dummy+0xb>
  20116a:	55                   	push   %rbp
  20116b:	48 89 e5             	mov    %rsp,%rbp
  20116e:	ff d0                	callq  *%rax
  201170:	5d                   	pop    %rbp
  201171:	e9 7a ff ff ff       	jmpq   2010f0 <register_tm_clones>
  201176:	cc                   	int3   
  201177:	cc                   	int3   
  201178:	cc                   	int3   
  201179:	cc                   	int3   
  20117a:	cc                   	int3   
  20117b:	cc                   	int3   
  20117c:	cc                   	int3   
  20117d:	cc                   	int3   
  20117e:	cc                   	int3   
  20117f:	cc                   	int3   
  201180:	cc                   	int3   
  201181:	cc                   	int3   
  201182:	cc                   	int3   
  201183:	cc                   	int3   
  201184:	cc                   	int3   
  201185:	cc                   	int3   
  201186:	cc                   	int3   
  201187:	cc                   	int3   
  201188:	cc                   	int3   
  201189:	cc                   	int3   
  20118a:	cc                   	int3   
  20118b:	cc                   	int3   
  20118c:	cc                   	int3   
  20118d:	cc                   	int3   
  20118e:	cc                   	int3   
  20118f:	cc                   	int3   
  201190:	cc                   	int3   
  201191:	cc                   	int3   
  201192:	cc                   	int3   
  201193:	cc                   	int3   
  201194:	cc                   	int3   
  201195:	cc                   	int3   
  201196:	cc                   	int3   
  201197:	cc                   	int3   
  201198:	cc                   	int3   
  201199:	cc                   	int3   
  20119a:	cc                   	int3   
  20119b:	cc                   	int3   
  20119c:	cc                   	int3   
  20119d:	cc                   	int3   
  20119e:	cc                   	int3   
  20119f:	cc                   	int3   
  2011a0:	cc                   	int3   
  2011a1:	cc                   	int3   
  2011a2:	cc                   	int3   
  2011a3:	cc                   	int3   
  2011a4:	cc                   	int3   
  2011a5:	cc                   	int3   
  2011a6:	cc                   	int3   
  2011a7:	cc                   	int3   
  2011a8:	cc                   	int3   
  2011a9:	cc                   	int3   
  2011aa:	cc                   	int3   
  2011ab:	cc                   	int3   
  2011ac:	cc                   	int3   
  2011ad:	cc                   	int3   
  2011ae:	cc                   	int3   
  2011af:	cc                   	int3   
  2011b0:	cc                   	int3   
  2011b1:	cc                   	int3   
  2011b2:	cc                   	int3   
  2011b3:	cc                   	int3   
  2011b4:	cc                   	int3   
  2011b5:	cc                   	int3   
  2011b6:	cc                   	int3   
  2011b7:	cc                   	int3   
  2011b8:	cc                   	int3   
  2011b9:	cc                   	int3   
  2011ba:	cc                   	int3   
  2011bb:	cc                   	int3   
  2011bc:	cc                   	int3   
  2011bd:	cc                   	int3   
  2011be:	cc                   	int3   
  2011bf:	cc                   	int3   
  2011c0:	cc                   	int3   
  2011c1:	cc                   	int3   
  2011c2:	cc                   	int3   
  2011c3:	cc                   	int3   
  2011c4:	cc                   	int3   
  2011c5:	cc                   	int3   
  2011c6:	cc                   	int3   
  2011c7:	cc                   	int3   
  2011c8:	cc                   	int3   
  2011c9:	cc                   	int3   
  2011ca:	cc                   	int3   
  2011cb:	cc                   	int3   
  2011cc:	cc                   	int3   
  2011cd:	cc                   	int3   
  2011ce:	cc                   	int3   
  2011cf:	cc                   	int3   
  2011d0:	cc                   	int3   
  2011d1:	cc                   	int3   
  2011d2:	cc                   	int3   
  2011d3:	cc                   	int3   
  2011d4:	cc                   	int3   
  2011d5:	cc                   	int3   
  2011d6:	cc                   	int3   
  2011d7:	cc                   	int3   
  2011d8:	cc                   	int3   
  2011d9:	cc                   	int3   
  2011da:	cc                   	int3   
  2011db:	cc                   	int3   
  2011dc:	cc                   	int3   
  2011dd:	cc                   	int3   
  2011de:	cc                   	int3   
  2011df:	cc                   	int3   
  2011e0:	cc                   	int3   
  2011e1:	cc                   	int3   
  2011e2:	cc                   	int3   
  2011e3:	cc                   	int3   
  2011e4:	cc                   	int3   
  2011e5:	cc                   	int3   
  2011e6:	cc                   	int3   
  2011e7:	cc                   	int3   
  2011e8:	cc                   	int3   
  2011e9:	cc                   	int3   
  2011ea:	cc                   	int3   
  2011eb:	cc                   	int3   
  2011ec:	cc                   	int3   
  2011ed:	cc                   	int3   
  2011ee:	cc                   	int3   
  2011ef:	cc                   	int3   
  2011f0:	cc                   	int3   
  2011f1:	cc                   	int3   
  2011f2:	cc                   	int3   
  2011f3:	cc                   	int3   
  2011f4:	cc                   	int3   
  2011f5:	cc                   	int3   
  2011f6:	cc                   	int3   
  2011f7:	cc                   	int3   
  2011f8:	cc                   	int3   
  2011f9:	cc                   	int3   
  2011fa:	cc                   	int3   
  2011fb:	cc                   	int3   
  2011fc:	cc                   	int3   
  2011fd:	cc                   	int3   
  2011fe:	cc                   	int3   
  2011ff:	cc                   	int3   
  201200:	cc                   	int3   
  201201:	cc                   	int3   
  201202:	cc                   	int3   
  201203:	cc                   	int3   
  201204:	cc                   	int3   
  201205:	cc                   	int3   
  201206:	cc                   	int3   
  201207:	cc                   	int3   
  201208:	cc                   	int3   
  201209:	cc                   	int3   
  20120a:	cc                   	int3   
  20120b:	cc                   	int3   
  20120c:	cc                   	int3   
  20120d:	cc                   	int3   
  20120e:	cc                   	int3   
  20120f:	cc                   	int3   
  201210:	cc                   	int3   
  201211:	cc                   	int3   
  201212:	cc                   	int3   
  201213:	cc                   	int3   
  201214:	cc                   	int3   
  201215:	cc                   	int3   
  201216:	cc                   	int3   
  201217:	cc                   	int3   
  201218:	cc                   	int3   
  201219:	cc                   	int3   
  20121a:	cc                   	int3   
  20121b:	cc                   	int3   
  20121c:	cc                   	int3   
  20121d:	cc                   	int3   
  20121e:	cc                   	int3   
  20121f:	cc                   	int3   
  201220:	cc                   	int3   
  201221:	cc                   	int3   
  201222:	cc                   	int3   
  201223:	cc                   	int3   
  201224:	cc                   	int3   
  201225:	cc                   	int3   
  201226:	cc                   	int3   
  201227:	cc                   	int3   
  201228:	cc                   	int3   
  201229:	cc                   	int3   
  20122a:	cc                   	int3   
  20122b:	cc                   	int3   
  20122c:	cc                   	int3   
  20122d:	cc                   	int3   
  20122e:	cc                   	int3   
  20122f:	cc                   	int3   
  201230:	cc                   	int3   
  201231:	cc                   	int3   
  201232:	cc                   	int3   
  201233:	cc                   	int3   
  201234:	cc                   	int3   
  201235:	cc                   	int3   
  201236:	cc                   	int3   
  201237:	cc                   	int3   
  201238:	cc                   	int3   
  201239:	cc                   	int3   
  20123a:	cc                   	int3   
  20123b:	cc                   	int3   
  20123c:	cc                   	int3   
  20123d:	cc                   	int3   
  20123e:	cc                   	int3   
  20123f:	cc                   	int3   
  201240:	cc                   	int3   
  201241:	cc                   	int3   
  201242:	cc                   	int3   
  201243:	cc                   	int3   
  201244:	cc                   	int3   
  201245:	cc                   	int3   
  201246:	cc                   	int3   
  201247:	cc                   	int3   
  201248:	cc                   	int3   
  201249:	cc                   	int3   
  20124a:	cc                   	int3   
  20124b:	cc                   	int3   
  20124c:	cc                   	int3   
  20124d:	cc                   	int3   
  20124e:	cc                   	int3   
  20124f:	cc                   	int3   
  201250:	cc                   	int3   
  201251:	cc                   	int3   
  201252:	cc                   	int3   
  201253:	cc                   	int3   
  201254:	cc                   	int3   
  201255:	cc                   	int3   
  201256:	cc                   	int3   
  201257:	cc                   	int3   
  201258:	cc                   	int3   
  201259:	cc                   	int3   
  20125a:	cc                   	int3   
  20125b:	cc                   	int3   
  20125c:	cc                   	int3   
  20125d:	cc                   	int3   
  20125e:	cc                   	int3   
  20125f:	cc                   	int3   
  201260:	cc                   	int3   
  201261:	cc                   	int3   
  201262:	cc                   	int3   
  201263:	cc                   	int3   
  201264:	cc                   	int3   
  201265:	cc                   	int3   
  201266:	cc                   	int3   
  201267:	cc                   	int3   
  201268:	cc                   	int3   
  201269:	cc                   	int3   
  20126a:	cc                   	int3   
  20126b:	cc                   	int3   
  20126c:	cc                   	int3   
  20126d:	cc                   	int3   
  20126e:	cc                   	int3   
  20126f:	cc                   	int3   
  201270:	cc                   	int3   
  201271:	cc                   	int3   
  201272:	cc                   	int3   
  201273:	cc                   	int3   
  201274:	cc                   	int3   
  201275:	cc                   	int3   
  201276:	cc                   	int3   
  201277:	cc                   	int3   
  201278:	cc                   	int3   
  201279:	cc                   	int3   
  20127a:	cc                   	int3   
  20127b:	cc                   	int3   
  20127c:	cc                   	int3   
  20127d:	cc                   	int3   
  20127e:	cc                   	int3   
  20127f:	cc                   	int3   
  201280:	cc                   	int3   
  201281:	cc                   	int3   
  201282:	cc                   	int3   
  201283:	cc                   	int3   
  201284:	cc                   	int3   
  201285:	cc                   	int3   
  201286:	cc                   	int3   
  201287:	cc                   	int3   
  201288:	cc                   	int3   
  201289:	cc                   	int3   
  20128a:	cc                   	int3   
  20128b:	cc                   	int3   
  20128c:	cc                   	int3   
  20128d:	cc                   	int3   
  20128e:	cc                   	int3   
  20128f:	cc                   	int3   
  201290:	cc                   	int3   
  201291:	cc                   	int3   
  201292:	cc                   	int3   
  201293:	cc                   	int3   
  201294:	cc                   	int3   
  201295:	cc                   	int3   
  201296:	cc                   	int3   
  201297:	cc                   	int3   
  201298:	cc                   	int3   
  201299:	cc                   	int3   
  20129a:	cc                   	int3   
  20129b:	cc                   	int3   
  20129c:	cc                   	int3   
  20129d:	cc                   	int3   
  20129e:	cc                   	int3   
  20129f:	cc                   	int3   
  2012a0:	cc                   	int3   
  2012a1:	cc                   	int3   
  2012a2:	cc                   	int3   
  2012a3:	cc                   	int3   
  2012a4:	cc                   	int3   
  2012a5:	cc                   	int3   
  2012a6:	cc                   	int3   
  2012a7:	cc                   	int3   
  2012a8:	cc                   	int3   
  2012a9:	cc                   	int3   
  2012aa:	cc                   	int3   
  2012ab:	cc                   	int3   
  2012ac:	cc                   	int3   
  2012ad:	cc                   	int3   
  2012ae:	cc                   	int3   
  2012af:	cc                   	int3   
  2012b0:	cc                   	int3   
  2012b1:	cc                   	int3   
  2012b2:	cc                   	int3   
  2012b3:	cc                   	int3   
  2012b4:	cc                   	int3   
  2012b5:	cc                   	int3   
  2012b6:	cc                   	int3   
  2012b7:	cc                   	int3   
  2012b8:	cc                   	int3   
  2012b9:	cc                   	int3   
  2012ba:	cc                   	int3   
  2012bb:	cc                   	int3   
  2012bc:	cc                   	int3   
  2012bd:	cc                   	int3   
  2012be:	cc                   	int3   
  2012bf:	cc                   	int3   
  2012c0:	cc                   	int3   
  2012c1:	cc                   	int3   
  2012c2:	cc                   	int3   
  2012c3:	cc                   	int3   
  2012c4:	cc                   	int3   
  2012c5:	cc                   	int3   
  2012c6:	cc                   	int3   
  2012c7:	cc                   	int3   
  2012c8:	cc                   	int3   
  2012c9:	cc                   	int3   
  2012ca:	cc                   	int3   
  2012cb:	cc                   	int3   
  2012cc:	cc                   	int3   
  2012cd:	cc                   	int3   
  2012ce:	cc                   	int3   
  2012cf:	cc                   	int3   
  2012d0:	cc                   	int3   
  2012d1:	cc                   	int3   
  2012d2:	cc                   	int3   
  2012d3:	cc                   	int3   
  2012d4:	cc                   	int3   
  2012d5:	cc                   	int3   
  2012d6:	cc                   	int3   
  2012d7:	cc                   	int3   
  2012d8:	cc                   	int3   
  2012d9:	cc                   	int3   
  2012da:	cc                   	int3   
  2012db:	cc                   	int3   
  2012dc:	cc                   	int3   
  2012dd:	cc                   	int3   
  2012de:	cc                   	int3   
  2012df:	cc                   	int3   
  2012e0:	cc                   	int3   
  2012e1:	cc                   	int3   
  2012e2:	cc                   	int3   
  2012e3:	cc                   	int3   
  2012e4:	cc                   	int3   
  2012e5:	cc                   	int3   
  2012e6:	cc                   	int3   
  2012e7:	cc                   	int3   
  2012e8:	cc                   	int3   
  2012e9:	cc                   	int3   
  2012ea:	cc                   	int3   
  2012eb:	cc                   	int3   
  2012ec:	cc                   	int3   
  2012ed:	cc                   	int3   
  2012ee:	cc                   	int3   
  2012ef:	cc                   	int3   
  2012f0:	cc                   	int3   
  2012f1:	cc                   	int3   
  2012f2:	cc                   	int3   
  2012f3:	cc                   	int3   
  2012f4:	cc                   	int3   
  2012f5:	cc                   	int3   
  2012f6:	cc                   	int3   
  2012f7:	cc                   	int3   
  2012f8:	cc                   	int3   
  2012f9:	cc                   	int3   
  2012fa:	cc                   	int3   
  2012fb:	cc                   	int3   
  2012fc:	cc                   	int3   
  2012fd:	cc                   	int3   
  2012fe:	cc                   	int3   
  2012ff:	cc                   	int3   
  201300:	cc                   	int3   
  201301:	cc                   	int3   
  201302:	cc                   	int3   
  201303:	cc                   	int3   
  201304:	cc                   	int3   
  201305:	cc                   	int3   
  201306:	cc                   	int3   
  201307:	cc                   	int3   
  201308:	cc                   	int3   
  201309:	cc                   	int3   
  20130a:	cc                   	int3   
  20130b:	cc                   	int3   
  20130c:	cc                   	int3   
  20130d:	cc                   	int3   
  20130e:	cc                   	int3   
  20130f:	cc                   	int3   
  201310:	cc                   	int3   
  201311:	cc                   	int3   
  201312:	cc                   	int3   
  201313:	cc                   	int3   
  201314:	cc                   	int3   
  201315:	cc                   	int3   
  201316:	cc                   	int3   
  201317:	cc                   	int3   
  201318:	cc                   	int3   
  201319:	cc                   	int3   
  20131a:	cc                   	int3   
  20131b:	cc                   	int3   
  20131c:	cc                   	int3   
  20131d:	cc                   	int3   
  20131e:	cc                   	int3   
  20131f:	cc                   	int3   
  201320:	cc                   	int3   
  201321:	cc                   	int3   
  201322:	cc                   	int3   
  201323:	cc                   	int3   
  201324:	cc                   	int3   
  201325:	cc                   	int3   
  201326:	cc                   	int3   
  201327:	cc                   	int3   
  201328:	cc                   	int3   
  201329:	cc                   	int3   
  20132a:	cc                   	int3   
  20132b:	cc                   	int3   
  20132c:	cc                   	int3   
  20132d:	cc                   	int3   
  20132e:	cc                   	int3   
  20132f:	cc                   	int3   
  201330:	cc                   	int3   
  201331:	cc                   	int3   
  201332:	cc                   	int3   
  201333:	cc                   	int3   
  201334:	cc                   	int3   
  201335:	cc                   	int3   
  201336:	cc                   	int3   
  201337:	cc                   	int3   
  201338:	cc                   	int3   
  201339:	cc                   	int3   
  20133a:	cc                   	int3   
  20133b:	cc                   	int3   
  20133c:	cc                   	int3   
  20133d:	cc                   	int3   
  20133e:	cc                   	int3   
  20133f:	cc                   	int3   
  201340:	cc                   	int3   
  201341:	cc                   	int3   
  201342:	cc                   	int3   
  201343:	cc                   	int3   
  201344:	cc                   	int3   
  201345:	cc                   	int3   
  201346:	cc                   	int3   
  201347:	cc                   	int3   
  201348:	cc                   	int3   
  201349:	cc                   	int3   
  20134a:	cc                   	int3   
  20134b:	cc                   	int3   
  20134c:	cc                   	int3   
  20134d:	cc                   	int3   
  20134e:	cc                   	int3   
  20134f:	cc                   	int3   
  201350:	cc                   	int3   
  201351:	cc                   	int3   
  201352:	cc                   	int3   
  201353:	cc                   	int3   
  201354:	cc                   	int3   
  201355:	cc                   	int3   
  201356:	cc                   	int3   
  201357:	cc                   	int3   
  201358:	cc                   	int3   
  201359:	cc                   	int3   
  20135a:	cc                   	int3   
  20135b:	cc                   	int3   
  20135c:	cc                   	int3   
  20135d:	cc                   	int3   
  20135e:	cc                   	int3   
  20135f:	cc                   	int3   
  201360:	cc                   	int3   
  201361:	cc                   	int3   
  201362:	cc                   	int3   
  201363:	cc                   	int3   
  201364:	cc                   	int3   
  201365:	cc                   	int3   
  201366:	cc                   	int3   
  201367:	cc                   	int3   
  201368:	cc                   	int3   
  201369:	cc                   	int3   
  20136a:	cc                   	int3   
  20136b:	cc                   	int3   
  20136c:	cc                   	int3   
  20136d:	cc                   	int3   
  20136e:	cc                   	int3   
  20136f:	cc                   	int3   
  201370:	cc                   	int3   
  201371:	cc                   	int3   
  201372:	cc                   	int3   
  201373:	cc                   	int3   
  201374:	cc                   	int3   
  201375:	cc                   	int3   
  201376:	cc                   	int3   
  201377:	cc                   	int3   
  201378:	cc                   	int3   
  201379:	cc                   	int3   
  20137a:	cc                   	int3   
  20137b:	cc                   	int3   
  20137c:	cc                   	int3   
  20137d:	cc                   	int3   
  20137e:	cc                   	int3   
  20137f:	cc                   	int3   
  201380:	cc                   	int3   
  201381:	cc                   	int3   
  201382:	cc                   	int3   
  201383:	cc                   	int3   
  201384:	cc                   	int3   
  201385:	cc                   	int3   
  201386:	cc                   	int3   
  201387:	cc                   	int3   
  201388:	cc                   	int3   
  201389:	cc                   	int3   
  20138a:	cc                   	int3   
  20138b:	cc                   	int3   
  20138c:	cc                   	int3   
  20138d:	cc                   	int3   
  20138e:	cc                   	int3   
  20138f:	cc                   	int3   
  201390:	cc                   	int3   
  201391:	cc                   	int3   
  201392:	cc                   	int3   
  201393:	cc                   	int3   
  201394:	cc                   	int3   
  201395:	cc                   	int3   
  201396:	cc                   	int3   
  201397:	cc                   	int3   
  201398:	cc                   	int3   
  201399:	cc                   	int3   
  20139a:	cc                   	int3   
  20139b:	cc                   	int3   
  20139c:	cc                   	int3   
  20139d:	cc                   	int3   
  20139e:	cc                   	int3   
  20139f:	cc                   	int3   
  2013a0:	cc                   	int3   
  2013a1:	cc                   	int3   
  2013a2:	cc                   	int3   
  2013a3:	cc                   	int3   
  2013a4:	cc                   	int3   
  2013a5:	cc                   	int3   
  2013a6:	cc                   	int3   
  2013a7:	cc                   	int3   
  2013a8:	cc                   	int3   
  2013a9:	cc                   	int3   
  2013aa:	cc                   	int3   
  2013ab:	cc                   	int3   
  2013ac:	cc                   	int3   
  2013ad:	cc                   	int3   
  2013ae:	cc                   	int3   
  2013af:	cc                   	int3   
  2013b0:	cc                   	int3   
  2013b1:	cc                   	int3   
  2013b2:	cc                   	int3   
  2013b3:	cc                   	int3   
  2013b4:	cc                   	int3   
  2013b5:	cc                   	int3   
  2013b6:	cc                   	int3   
  2013b7:	cc                   	int3   
  2013b8:	cc                   	int3   
  2013b9:	cc                   	int3   
  2013ba:	cc                   	int3   
  2013bb:	cc                   	int3   
  2013bc:	cc                   	int3   
  2013bd:	cc                   	int3   
  2013be:	cc                   	int3   
  2013bf:	cc                   	int3   
  2013c0:	cc                   	int3   
  2013c1:	cc                   	int3   
  2013c2:	cc                   	int3   
  2013c3:	cc                   	int3   
  2013c4:	cc                   	int3   
  2013c5:	cc                   	int3   
  2013c6:	cc                   	int3   
  2013c7:	cc                   	int3   
  2013c8:	cc                   	int3   
  2013c9:	cc                   	int3   
  2013ca:	cc                   	int3   
  2013cb:	cc                   	int3   
  2013cc:	cc                   	int3   
  2013cd:	cc                   	int3   
  2013ce:	cc                   	int3   
  2013cf:	cc                   	int3   
  2013d0:	cc                   	int3   
  2013d1:	cc                   	int3   
  2013d2:	cc                   	int3   
  2013d3:	cc                   	int3   
  2013d4:	cc                   	int3   
  2013d5:	cc                   	int3   
  2013d6:	cc                   	int3   
  2013d7:	cc                   	int3   
  2013d8:	cc                   	int3   
  2013d9:	cc                   	int3   
  2013da:	cc                   	int3   
  2013db:	cc                   	int3   
  2013dc:	cc                   	int3   
  2013dd:	cc                   	int3   
  2013de:	cc                   	int3   
  2013df:	cc                   	int3   
  2013e0:	cc                   	int3   
  2013e1:	cc                   	int3   
  2013e2:	cc                   	int3   
  2013e3:	cc                   	int3   
  2013e4:	cc                   	int3   
  2013e5:	cc                   	int3   
  2013e6:	cc                   	int3   
  2013e7:	cc                   	int3   
  2013e8:	cc                   	int3   
  2013e9:	cc                   	int3   
  2013ea:	cc                   	int3   
  2013eb:	cc                   	int3   
  2013ec:	cc                   	int3   
  2013ed:	cc                   	int3   
  2013ee:	cc                   	int3   
  2013ef:	cc                   	int3   
  2013f0:	cc                   	int3   
  2013f1:	cc                   	int3   
  2013f2:	cc                   	int3   
  2013f3:	cc                   	int3   
  2013f4:	cc                   	int3   
  2013f5:	cc                   	int3   
  2013f6:	cc                   	int3   
  2013f7:	cc                   	int3   
  2013f8:	cc                   	int3   
  2013f9:	cc                   	int3   
  2013fa:	cc                   	int3   
  2013fb:	cc                   	int3   
  2013fc:	cc                   	int3   
  2013fd:	cc                   	int3   
  2013fe:	cc                   	int3   
  2013ff:	cc                   	int3   
  201400:	cc                   	int3   
  201401:	cc                   	int3   
  201402:	cc                   	int3   
  201403:	cc                   	int3   
  201404:	cc                   	int3   
  201405:	cc                   	int3   
  201406:	cc                   	int3   
  201407:	cc                   	int3   
  201408:	cc                   	int3   
  201409:	cc                   	int3   
  20140a:	cc                   	int3   
  20140b:	cc                   	int3   
  20140c:	cc                   	int3   
  20140d:	cc                   	int3   
  20140e:	cc                   	int3   
  20140f:	cc                   	int3   
  201410:	cc                   	int3   
  201411:	cc                   	int3   
  201412:	cc                   	int3   
  201413:	cc                   	int3   
  201414:	cc                   	int3   
  201415:	cc                   	int3   
  201416:	cc                   	int3   
  201417:	cc                   	int3   
  201418:	cc                   	int3   
  201419:	cc                   	int3   
  20141a:	cc                   	int3   
  20141b:	cc                   	int3   
  20141c:	cc                   	int3   
  20141d:	cc                   	int3   
  20141e:	cc                   	int3   
  20141f:	cc                   	int3   
  201420:	cc                   	int3   
  201421:	cc                   	int3   
  201422:	cc                   	int3   
  201423:	cc                   	int3   
  201424:	cc                   	int3   
  201425:	cc                   	int3   
  201426:	cc                   	int3   
  201427:	cc                   	int3   
  201428:	cc                   	int3   
  201429:	cc                   	int3   
  20142a:	cc                   	int3   
  20142b:	cc                   	int3   
  20142c:	cc                   	int3   
  20142d:	cc                   	int3   
  20142e:	cc                   	int3   
  20142f:	cc                   	int3   
  201430:	cc                   	int3   
  201431:	cc                   	int3   
  201432:	cc                   	int3   
  201433:	cc                   	int3   
  201434:	cc                   	int3   
  201435:	cc                   	int3   
  201436:	cc                   	int3   
  201437:	cc                   	int3   
  201438:	cc                   	int3   
  201439:	cc                   	int3   
  20143a:	cc                   	int3   
  20143b:	cc                   	int3   
  20143c:	cc                   	int3   
  20143d:	cc                   	int3   
  20143e:	cc                   	int3   
  20143f:	cc                   	int3   
  201440:	cc                   	int3   
  201441:	cc                   	int3   
  201442:	cc                   	int3   
  201443:	cc                   	int3   
  201444:	cc                   	int3   
  201445:	cc                   	int3   
  201446:	cc                   	int3   
  201447:	cc                   	int3   
  201448:	cc                   	int3   
  201449:	cc                   	int3   
  20144a:	cc                   	int3   
  20144b:	cc                   	int3   
  20144c:	cc                   	int3   
  20144d:	cc                   	int3   
  20144e:	cc                   	int3   
  20144f:	cc                   	int3   
  201450:	cc                   	int3   
  201451:	cc                   	int3   
  201452:	cc                   	int3   
  201453:	cc                   	int3   
  201454:	cc                   	int3   
  201455:	cc                   	int3   
  201456:	cc                   	int3   
  201457:	cc                   	int3   
  201458:	cc                   	int3   
  201459:	cc                   	int3   
  20145a:	cc                   	int3   
  20145b:	cc                   	int3   
  20145c:	cc                   	int3   
  20145d:	cc                   	int3   
  20145e:	cc                   	int3   
  20145f:	cc                   	int3   
  201460:	cc                   	int3   
  201461:	cc                   	int3   
  201462:	cc                   	int3   
  201463:	cc                   	int3   
  201464:	cc                   	int3   
  201465:	cc                   	int3   
  201466:	cc                   	int3   
  201467:	cc                   	int3   
  201468:	cc                   	int3   
  201469:	cc                   	int3   
  20146a:	cc                   	int3   
  20146b:	cc                   	int3   
  20146c:	cc                   	int3   
  20146d:	cc                   	int3   
  20146e:	cc                   	int3   
  20146f:	cc                   	int3   
  201470:	cc                   	int3   
  201471:	cc                   	int3   
  201472:	cc                   	int3   
  201473:	cc                   	int3   
  201474:	cc                   	int3   
  201475:	cc                   	int3   
  201476:	cc                   	int3   
  201477:	cc                   	int3   
  201478:	cc                   	int3   
  201479:	cc                   	int3   
  20147a:	cc                   	int3   
  20147b:	cc                   	int3   
  20147c:	cc                   	int3   
  20147d:	cc                   	int3   
  20147e:	cc                   	int3   
  20147f:	cc                   	int3   
  201480:	cc                   	int3   
  201481:	cc                   	int3   
  201482:	cc                   	int3   
  201483:	cc                   	int3   
  201484:	cc                   	int3   
  201485:	cc                   	int3   
  201486:	cc                   	int3   
  201487:	cc                   	int3   
  201488:	cc                   	int3   
  201489:	cc                   	int3   
  20148a:	cc                   	int3   
  20148b:	cc                   	int3   
  20148c:	cc                   	int3   
  20148d:	cc                   	int3   
  20148e:	cc                   	int3   
  20148f:	cc                   	int3   
  201490:	cc                   	int3   
  201491:	cc                   	int3   
  201492:	cc                   	int3   
  201493:	cc                   	int3   
  201494:	cc                   	int3   
  201495:	cc                   	int3   
  201496:	cc                   	int3   
  201497:	cc                   	int3   
  201498:	cc                   	int3   
  201499:	cc                   	int3   
  20149a:	cc                   	int3   
  20149b:	cc                   	int3   
  20149c:	cc                   	int3   
  20149d:	cc                   	int3   
  20149e:	cc                   	int3   
  20149f:	cc                   	int3   
  2014a0:	cc                   	int3   
  2014a1:	cc                   	int3   
  2014a2:	cc                   	int3   
  2014a3:	cc                   	int3   
  2014a4:	cc                   	int3   
  2014a5:	cc                   	int3   
  2014a6:	cc                   	int3   
  2014a7:	cc                   	int3   
  2014a8:	cc                   	int3   
  2014a9:	cc                   	int3   
  2014aa:	cc                   	int3   
  2014ab:	cc                   	int3   
  2014ac:	cc                   	int3   
  2014ad:	cc                   	int3   
  2014ae:	cc                   	int3   
  2014af:	cc                   	int3   
  2014b0:	cc                   	int3   
  2014b1:	cc                   	int3   
  2014b2:	cc                   	int3   
  2014b3:	cc                   	int3   
  2014b4:	cc                   	int3   
  2014b5:	cc                   	int3   
  2014b6:	cc                   	int3   
  2014b7:	cc                   	int3   
  2014b8:	cc                   	int3   
  2014b9:	cc                   	int3   
  2014ba:	cc                   	int3   
  2014bb:	cc                   	int3   
  2014bc:	cc                   	int3   
  2014bd:	cc                   	int3   
  2014be:	cc                   	int3   
  2014bf:	cc                   	int3   
  2014c0:	cc                   	int3   
  2014c1:	cc                   	int3   
  2014c2:	cc                   	int3   
  2014c3:	cc                   	int3   
  2014c4:	cc                   	int3   
  2014c5:	cc                   	int3   
  2014c6:	cc                   	int3   
  2014c7:	cc                   	int3   
  2014c8:	cc                   	int3   
  2014c9:	cc                   	int3   
  2014ca:	cc                   	int3   
  2014cb:	cc                   	int3   
  2014cc:	cc                   	int3   
  2014cd:	cc                   	int3   
  2014ce:	cc                   	int3   
  2014cf:	cc                   	int3   
  2014d0:	cc                   	int3   
  2014d1:	cc                   	int3   
  2014d2:	cc                   	int3   
  2014d3:	cc                   	int3   
  2014d4:	cc                   	int3   
  2014d5:	cc                   	int3   
  2014d6:	cc                   	int3   
  2014d7:	cc                   	int3   
  2014d8:	cc                   	int3   
  2014d9:	cc                   	int3   
  2014da:	cc                   	int3   
  2014db:	cc                   	int3   
  2014dc:	cc                   	int3   
  2014dd:	cc                   	int3   
  2014de:	cc                   	int3   
  2014df:	cc                   	int3   
  2014e0:	cc                   	int3   
  2014e1:	cc                   	int3   
  2014e2:	cc                   	int3   
  2014e3:	cc                   	int3   
  2014e4:	cc                   	int3   
  2014e5:	cc                   	int3   
  2014e6:	cc                   	int3   
  2014e7:	cc                   	int3   
  2014e8:	cc                   	int3   
  2014e9:	cc                   	int3   
  2014ea:	cc                   	int3   
  2014eb:	cc                   	int3   
  2014ec:	cc                   	int3   
  2014ed:	cc                   	int3   
  2014ee:	cc                   	int3   
  2014ef:	cc                   	int3   
  2014f0:	cc                   	int3   
  2014f1:	cc                   	int3   
  2014f2:	cc                   	int3   
  2014f3:	cc                   	int3   
  2014f4:	cc                   	int3   
  2014f5:	cc                   	int3   
  2014f6:	cc                   	int3   
  2014f7:	cc                   	int3   
  2014f8:	cc                   	int3   
  2014f9:	cc                   	int3   
  2014fa:	cc                   	int3   
  2014fb:	cc                   	int3   
  2014fc:	cc                   	int3   
  2014fd:	cc                   	int3   
  2014fe:	cc                   	int3   
  2014ff:	cc                   	int3   
  201500:	cc                   	int3   
  201501:	cc                   	int3   
  201502:	cc                   	int3   
  201503:	cc                   	int3   
  201504:	cc                   	int3   
  201505:	cc                   	int3   
  201506:	cc                   	int3   
  201507:	cc                   	int3   
  201508:	cc                   	int3   
  201509:	cc                   	int3   
  20150a:	cc                   	int3   
  20150b:	cc                   	int3   
  20150c:	cc                   	int3   
  20150d:	cc                   	int3   
  20150e:	cc                   	int3   
  20150f:	cc                   	int3   
  201510:	cc                   	int3   
  201511:	cc                   	int3   
  201512:	cc                   	int3   
  201513:	cc                   	int3   
  201514:	cc                   	int3   
  201515:	cc                   	int3   
  201516:	cc                   	int3   
  201517:	cc                   	int3   
  201518:	cc                   	int3   
  201519:	cc                   	int3   
  20151a:	cc                   	int3   
  20151b:	cc                   	int3   
  20151c:	cc                   	int3   
  20151d:	cc                   	int3   
  20151e:	cc                   	int3   
  20151f:	cc                   	int3   
  201520:	cc                   	int3   
  201521:	cc                   	int3   
  201522:	cc                   	int3   
  201523:	cc                   	int3   
  201524:	cc                   	int3   
  201525:	cc                   	int3   
  201526:	cc                   	int3   
  201527:	cc                   	int3   
  201528:	cc                   	int3   
  201529:	cc                   	int3   
  20152a:	cc                   	int3   
  20152b:	cc                   	int3   
  20152c:	cc                   	int3   
  20152d:	cc                   	int3   
  20152e:	cc                   	int3   
  20152f:	cc                   	int3   
  201530:	cc                   	int3   
  201531:	cc                   	int3   
  201532:	cc                   	int3   
  201533:	cc                   	int3   
  201534:	cc                   	int3   
  201535:	cc                   	int3   
  201536:	cc                   	int3   
  201537:	cc                   	int3   
  201538:	cc                   	int3   
  201539:	cc                   	int3   
  20153a:	cc                   	int3   
  20153b:	cc                   	int3   
  20153c:	cc                   	int3   
  20153d:	cc                   	int3   
  20153e:	cc                   	int3   
  20153f:	cc                   	int3   
  201540:	cc                   	int3   
  201541:	cc                   	int3   
  201542:	cc                   	int3   
  201543:	cc                   	int3   
  201544:	cc                   	int3   
  201545:	cc                   	int3   
  201546:	cc                   	int3   
  201547:	cc                   	int3   
  201548:	cc                   	int3   
  201549:	cc                   	int3   
  20154a:	cc                   	int3   
  20154b:	cc                   	int3   
  20154c:	cc                   	int3   
  20154d:	cc                   	int3   
  20154e:	cc                   	int3   
  20154f:	cc                   	int3   
  201550:	cc                   	int3   
  201551:	cc                   	int3   
  201552:	cc                   	int3   
  201553:	cc                   	int3   
  201554:	cc                   	int3   
  201555:	cc                   	int3   
  201556:	cc                   	int3   
  201557:	cc                   	int3   
  201558:	cc                   	int3   
  201559:	cc                   	int3   
  20155a:	cc                   	int3   
  20155b:	cc                   	int3   
  20155c:	cc                   	int3   
  20155d:	cc                   	int3   
  20155e:	cc                   	int3   
  20155f:	cc                   	int3   
  201560:	cc                   	int3   
  201561:	cc                   	int3   
  201562:	cc                   	int3   
  201563:	cc                   	int3   
  201564:	cc                   	int3   
  201565:	cc                   	int3   
  201566:	cc                   	int3   
  201567:	cc                   	int3   
  201568:	cc                   	int3   
  201569:	cc                   	int3   
  20156a:	cc                   	int3   
  20156b:	cc                   	int3   
  20156c:	cc                   	int3   
  20156d:	cc                   	int3   
  20156e:	cc                   	int3   
  20156f:	cc                   	int3   
  201570:	cc                   	int3   
  201571:	cc                   	int3   
  201572:	cc                   	int3   
  201573:	cc                   	int3   
  201574:	cc                   	int3   
  201575:	cc                   	int3   
  201576:	cc                   	int3   
  201577:	cc                   	int3   
  201578:	cc                   	int3   
  201579:	cc                   	int3   
  20157a:	cc                   	int3   
  20157b:	cc                   	int3   
  20157c:	cc                   	int3   
  20157d:	cc                   	int3   
  20157e:	cc                   	int3   
  20157f:	cc                   	int3   
  201580:	cc                   	int3   
  201581:	cc                   	int3   
  201582:	cc                   	int3   
  201583:	cc                   	int3   
  201584:	cc                   	int3   
  201585:	cc                   	int3   
  201586:	cc                   	int3   
  201587:	cc                   	int3   
  201588:	cc                   	int3   
  201589:	cc                   	int3   
  20158a:	cc                   	int3   
  20158b:	cc                   	int3   
  20158c:	cc                   	int3   
  20158d:	cc                   	int3   
  20158e:	cc                   	int3   
  20158f:	cc                   	int3   
  201590:	cc                   	int3   
  201591:	cc                   	int3   
  201592:	cc                   	int3   
  201593:	cc                   	int3   
  201594:	cc                   	int3   
  201595:	cc                   	int3   
  201596:	cc                   	int3   
  201597:	cc                   	int3   
  201598:	cc                   	int3   
  201599:	cc                   	int3   
  20159a:	cc                   	int3   
  20159b:	cc                   	int3   
  20159c:	cc                   	int3   
  20159d:	cc                   	int3   
  20159e:	cc                   	int3   
  20159f:	cc                   	int3   
  2015a0:	cc                   	int3   
  2015a1:	cc                   	int3   
  2015a2:	cc                   	int3   
  2015a3:	cc                   	int3   
  2015a4:	cc                   	int3   
  2015a5:	cc                   	int3   
  2015a6:	cc                   	int3   
  2015a7:	cc                   	int3   
  2015a8:	cc                   	int3   
  2015a9:	cc                   	int3   
  2015aa:	cc                   	int3   
  2015ab:	cc                   	int3   
  2015ac:	cc                   	int3   
  2015ad:	cc                   	int3   
  2015ae:	cc                   	int3   
  2015af:	cc                   	int3   
  2015b0:	cc                   	int3   
  2015b1:	cc                   	int3   
  2015b2:	cc                   	int3   
  2015b3:	cc                   	int3   
  2015b4:	cc                   	int3   
  2015b5:	cc                   	int3   
  2015b6:	cc                   	int3   
  2015b7:	cc                   	int3   
  2015b8:	cc                   	int3   
  2015b9:	cc                   	int3   
  2015ba:	cc                   	int3   
  2015bb:	cc                   	int3   
  2015bc:	cc                   	int3   
  2015bd:	cc                   	int3   
  2015be:	cc                   	int3   
  2015bf:	cc                   	int3   
  2015c0:	cc                   	int3   
  2015c1:	cc                   	int3   
  2015c2:	cc                   	int3   
  2015c3:	cc                   	int3   
  2015c4:	cc                   	int3   
  2015c5:	cc                   	int3   
  2015c6:	cc                   	int3   
  2015c7:	cc                   	int3   
  2015c8:	cc                   	int3   
  2015c9:	cc                   	int3   
  2015ca:	cc                   	int3   
  2015cb:	cc                   	int3   
  2015cc:	cc                   	int3   
  2015cd:	cc                   	int3   
  2015ce:	cc                   	int3   
  2015cf:	cc                   	int3   
  2015d0:	cc                   	int3   
  2015d1:	cc                   	int3   
  2015d2:	cc                   	int3   
  2015d3:	cc                   	int3   
  2015d4:	cc                   	int3   
  2015d5:	cc                   	int3   
  2015d6:	cc                   	int3   
  2015d7:	cc                   	int3   
  2015d8:	cc                   	int3   
  2015d9:	cc                   	int3   
  2015da:	cc                   	int3   
  2015db:	cc                   	int3   
  2015dc:	cc                   	int3   
  2015dd:	cc                   	int3   
  2015de:	cc                   	int3   
  2015df:	cc                   	int3   
  2015e0:	cc                   	int3   
  2015e1:	cc                   	int3   
  2015e2:	cc                   	int3   
  2015e3:	cc                   	int3   
  2015e4:	cc                   	int3   
  2015e5:	cc                   	int3   
  2015e6:	cc                   	int3   
  2015e7:	cc                   	int3   
  2015e8:	cc                   	int3   
  2015e9:	cc                   	int3   
  2015ea:	cc                   	int3   
  2015eb:	cc                   	int3   
  2015ec:	cc                   	int3   
  2015ed:	cc                   	int3   
  2015ee:	cc                   	int3   
  2015ef:	cc                   	int3   
  2015f0:	cc                   	int3   
  2015f1:	cc                   	int3   
  2015f2:	cc                   	int3   
  2015f3:	cc                   	int3   
  2015f4:	cc                   	int3   
  2015f5:	cc                   	int3   
  2015f6:	cc                   	int3   
  2015f7:	cc                   	int3   
  2015f8:	cc                   	int3   
  2015f9:	cc                   	int3   
  2015fa:	cc                   	int3   
  2015fb:	cc                   	int3   
  2015fc:	cc                   	int3   
  2015fd:	cc                   	int3   
  2015fe:	cc                   	int3   
  2015ff:	cc                   	int3   
  201600:	cc                   	int3   
  201601:	cc                   	int3   
  201602:	cc                   	int3   
  201603:	cc                   	int3   
  201604:	cc                   	int3   
  201605:	cc                   	int3   
  201606:	cc                   	int3   
  201607:	cc                   	int3   
  201608:	cc                   	int3   
  201609:	cc                   	int3   
  20160a:	cc                   	int3   
  20160b:	cc                   	int3   
  20160c:	cc                   	int3   
  20160d:	cc                   	int3   
  20160e:	cc                   	int3   
  20160f:	cc                   	int3   
  201610:	cc                   	int3   
  201611:	cc                   	int3   
  201612:	cc                   	int3   
  201613:	cc                   	int3   
  201614:	cc                   	int3   
  201615:	cc                   	int3   
  201616:	cc                   	int3   
  201617:	cc                   	int3   
  201618:	cc                   	int3   
  201619:	cc                   	int3   
  20161a:	cc                   	int3   
  20161b:	cc                   	int3   
  20161c:	cc                   	int3   
  20161d:	cc                   	int3   
  20161e:	cc                   	int3   
  20161f:	cc                   	int3   
  201620:	cc                   	int3   
  201621:	cc                   	int3   
  201622:	cc                   	int3   
  201623:	cc                   	int3   
  201624:	cc                   	int3   
  201625:	cc                   	int3   
  201626:	cc                   	int3   
  201627:	cc                   	int3   
  201628:	cc                   	int3   
  201629:	cc                   	int3   
  20162a:	cc                   	int3   
  20162b:	cc                   	int3   
  20162c:	cc                   	int3   
  20162d:	cc                   	int3   
  20162e:	cc                   	int3   
  20162f:	cc                   	int3   
  201630:	cc                   	int3   
  201631:	cc                   	int3   
  201632:	cc                   	int3   
  201633:	cc                   	int3   
  201634:	cc                   	int3   
  201635:	cc                   	int3   
  201636:	cc                   	int3   
  201637:	cc                   	int3   
  201638:	cc                   	int3   
  201639:	cc                   	int3   
  20163a:	cc                   	int3   
  20163b:	cc                   	int3   
  20163c:	cc                   	int3   
  20163d:	cc                   	int3   
  20163e:	cc                   	int3   
  20163f:	cc                   	int3   
  201640:	cc                   	int3   
  201641:	cc                   	int3   
  201642:	cc                   	int3   
  201643:	cc                   	int3   
  201644:	cc                   	int3   
  201645:	cc                   	int3   
  201646:	cc                   	int3   
  201647:	cc                   	int3   
  201648:	cc                   	int3   
  201649:	cc                   	int3   
  20164a:	cc                   	int3   
  20164b:	cc                   	int3   
  20164c:	cc                   	int3   
  20164d:	cc                   	int3   
  20164e:	cc                   	int3   
  20164f:	cc                   	int3   
  201650:	cc                   	int3   
  201651:	cc                   	int3   
  201652:	cc                   	int3   
  201653:	cc                   	int3   
  201654:	cc                   	int3   
  201655:	cc                   	int3   
  201656:	cc                   	int3   
  201657:	cc                   	int3   
  201658:	cc                   	int3   
  201659:	cc                   	int3   
  20165a:	cc                   	int3   
  20165b:	cc                   	int3   
  20165c:	cc                   	int3   
  20165d:	cc                   	int3   
  20165e:	cc                   	int3   
  20165f:	cc                   	int3   
  201660:	cc                   	int3   
  201661:	cc                   	int3   
  201662:	cc                   	int3   
  201663:	cc                   	int3   
  201664:	cc                   	int3   
  201665:	cc                   	int3   
  201666:	cc                   	int3   
  201667:	cc                   	int3   
  201668:	cc                   	int3   
  201669:	cc                   	int3   
  20166a:	cc                   	int3   
  20166b:	cc                   	int3   
  20166c:	cc                   	int3   
  20166d:	cc                   	int3   
  20166e:	cc                   	int3   
  20166f:	cc                   	int3   
  201670:	cc                   	int3   
  201671:	cc                   	int3   
  201672:	cc                   	int3   
  201673:	cc                   	int3   
  201674:	cc                   	int3   
  201675:	cc                   	int3   
  201676:	cc                   	int3   
  201677:	cc                   	int3   
  201678:	cc                   	int3   
  201679:	cc                   	int3   
  20167a:	cc                   	int3   
  20167b:	cc                   	int3   
  20167c:	cc                   	int3   
  20167d:	cc                   	int3   
  20167e:	cc                   	int3   
  20167f:	cc                   	int3   
  201680:	cc                   	int3   
  201681:	cc                   	int3   
  201682:	cc                   	int3   
  201683:	cc                   	int3   
  201684:	cc                   	int3   
  201685:	cc                   	int3   
  201686:	cc                   	int3   
  201687:	cc                   	int3   
  201688:	cc                   	int3   
  201689:	cc                   	int3   
  20168a:	cc                   	int3   
  20168b:	cc                   	int3   
  20168c:	cc                   	int3   
  20168d:	cc                   	int3   
  20168e:	cc                   	int3   
  20168f:	cc                   	int3   
  201690:	cc                   	int3   
  201691:	cc                   	int3   
  201692:	cc                   	int3   
  201693:	cc                   	int3   
  201694:	cc                   	int3   
  201695:	cc                   	int3   
  201696:	cc                   	int3   
  201697:	cc                   	int3   
  201698:	cc                   	int3   
  201699:	cc                   	int3   
  20169a:	cc                   	int3   
  20169b:	cc                   	int3   
  20169c:	cc                   	int3   
  20169d:	cc                   	int3   
  20169e:	cc                   	int3   
  20169f:	cc                   	int3   
  2016a0:	cc                   	int3   
  2016a1:	cc                   	int3   
  2016a2:	cc                   	int3   
  2016a3:	cc                   	int3   
  2016a4:	cc                   	int3   
  2016a5:	cc                   	int3   
  2016a6:	cc                   	int3   
  2016a7:	cc                   	int3   
  2016a8:	cc                   	int3   
  2016a9:	cc                   	int3   
  2016aa:	cc                   	int3   
  2016ab:	cc                   	int3   
  2016ac:	cc                   	int3   
  2016ad:	cc                   	int3   
  2016ae:	cc                   	int3   
  2016af:	cc                   	int3   
  2016b0:	cc                   	int3   
  2016b1:	cc                   	int3   
  2016b2:	cc                   	int3   
  2016b3:	cc                   	int3   
  2016b4:	cc                   	int3   
  2016b5:	cc                   	int3   
  2016b6:	cc                   	int3   
  2016b7:	cc                   	int3   
  2016b8:	cc                   	int3   
  2016b9:	cc                   	int3   
  2016ba:	cc                   	int3   
  2016bb:	cc                   	int3   
  2016bc:	cc                   	int3   
  2016bd:	cc                   	int3   
  2016be:	cc                   	int3   
  2016bf:	cc                   	int3   
  2016c0:	cc                   	int3   
  2016c1:	cc                   	int3   
  2016c2:	cc                   	int3   
  2016c3:	cc                   	int3   
  2016c4:	cc                   	int3   
  2016c5:	cc                   	int3   
  2016c6:	cc                   	int3   
  2016c7:	cc                   	int3   
  2016c8:	cc                   	int3   
  2016c9:	cc                   	int3   
  2016ca:	cc                   	int3   
  2016cb:	cc                   	int3   
  2016cc:	cc                   	int3   
  2016cd:	cc                   	int3   
  2016ce:	cc                   	int3   
  2016cf:	cc                   	int3   
  2016d0:	cc                   	int3   
  2016d1:	cc                   	int3   
  2016d2:	cc                   	int3   
  2016d3:	cc                   	int3   
  2016d4:	cc                   	int3   
  2016d5:	cc                   	int3   
  2016d6:	cc                   	int3   
  2016d7:	cc                   	int3   
  2016d8:	cc                   	int3   
  2016d9:	cc                   	int3   
  2016da:	cc                   	int3   
  2016db:	cc                   	int3   
  2016dc:	cc                   	int3   
  2016dd:	cc                   	int3   
  2016de:	cc                   	int3   
  2016df:	cc                   	int3   
  2016e0:	cc                   	int3   
  2016e1:	cc                   	int3   
  2016e2:	cc                   	int3   
  2016e3:	cc                   	int3   
  2016e4:	cc                   	int3   
  2016e5:	cc                   	int3   
  2016e6:	cc                   	int3   
  2016e7:	cc                   	int3   
  2016e8:	cc                   	int3   
  2016e9:	cc                   	int3   
  2016ea:	cc                   	int3   
  2016eb:	cc                   	int3   
  2016ec:	cc                   	int3   
  2016ed:	cc                   	int3   
  2016ee:	cc                   	int3   
  2016ef:	cc                   	int3   
  2016f0:	cc                   	int3   
  2016f1:	cc                   	int3   
  2016f2:	cc                   	int3   
  2016f3:	cc                   	int3   
  2016f4:	cc                   	int3   
  2016f5:	cc                   	int3   
  2016f6:	cc                   	int3   
  2016f7:	cc                   	int3   
  2016f8:	cc                   	int3   
  2016f9:	cc                   	int3   
  2016fa:	cc                   	int3   
  2016fb:	cc                   	int3   
  2016fc:	cc                   	int3   
  2016fd:	cc                   	int3   
  2016fe:	cc                   	int3   
  2016ff:	cc                   	int3   
  201700:	cc                   	int3   
  201701:	cc                   	int3   
  201702:	cc                   	int3   
  201703:	cc                   	int3   
  201704:	cc                   	int3   
  201705:	cc                   	int3   
  201706:	cc                   	int3   
  201707:	cc                   	int3   
  201708:	cc                   	int3   
  201709:	cc                   	int3   
  20170a:	cc                   	int3   
  20170b:	cc                   	int3   
  20170c:	cc                   	int3   
  20170d:	cc                   	int3   
  20170e:	cc                   	int3   
  20170f:	cc                   	int3   
  201710:	cc                   	int3   
  201711:	cc                   	int3   
  201712:	cc                   	int3   
  201713:	cc                   	int3   
  201714:	cc                   	int3   
  201715:	cc                   	int3   
  201716:	cc                   	int3   
  201717:	cc                   	int3   
  201718:	cc                   	int3   
  201719:	cc                   	int3   
  20171a:	cc                   	int3   
  20171b:	cc                   	int3   
  20171c:	cc                   	int3   
  20171d:	cc                   	int3   
  20171e:	cc                   	int3   
  20171f:	cc                   	int3   
  201720:	cc                   	int3   
  201721:	cc                   	int3   
  201722:	cc                   	int3   
  201723:	cc                   	int3   
  201724:	cc                   	int3   
  201725:	cc                   	int3   
  201726:	cc                   	int3   
  201727:	cc                   	int3   
  201728:	cc                   	int3   
  201729:	cc                   	int3   
  20172a:	cc                   	int3   
  20172b:	cc                   	int3   
  20172c:	cc                   	int3   
  20172d:	cc                   	int3   
  20172e:	cc                   	int3   
  20172f:	cc                   	int3   
  201730:	cc                   	int3   
  201731:	cc                   	int3   
  201732:	cc                   	int3   
  201733:	cc                   	int3   
  201734:	cc                   	int3   
  201735:	cc                   	int3   
  201736:	cc                   	int3   
  201737:	cc                   	int3   
  201738:	cc                   	int3   
  201739:	cc                   	int3   
  20173a:	cc                   	int3   
  20173b:	cc                   	int3   
  20173c:	cc                   	int3   
  20173d:	cc                   	int3   
  20173e:	cc                   	int3   
  20173f:	cc                   	int3   
  201740:	cc                   	int3   
  201741:	cc                   	int3   
  201742:	cc                   	int3   
  201743:	cc                   	int3   
  201744:	cc                   	int3   
  201745:	cc                   	int3   
  201746:	cc                   	int3   
  201747:	cc                   	int3   
  201748:	cc                   	int3   
  201749:	cc                   	int3   
  20174a:	cc                   	int3   
  20174b:	cc                   	int3   
  20174c:	cc                   	int3   
  20174d:	cc                   	int3   
  20174e:	cc                   	int3   
  20174f:	cc                   	int3   
  201750:	cc                   	int3   
  201751:	cc                   	int3   
  201752:	cc                   	int3   
  201753:	cc                   	int3   
  201754:	cc                   	int3   
  201755:	cc                   	int3   
  201756:	cc                   	int3   
  201757:	cc                   	int3   
  201758:	cc                   	int3   
  201759:	cc                   	int3   
  20175a:	cc                   	int3   
  20175b:	cc                   	int3   
  20175c:	cc                   	int3   
  20175d:	cc                   	int3   
  20175e:	cc                   	int3   
  20175f:	cc                   	int3   
  201760:	cc                   	int3   
  201761:	cc                   	int3   
  201762:	cc                   	int3   
  201763:	cc                   	int3   
  201764:	cc                   	int3   
  201765:	cc                   	int3   
  201766:	cc                   	int3   
  201767:	cc                   	int3   
  201768:	cc                   	int3   
  201769:	cc                   	int3   
  20176a:	cc                   	int3   
  20176b:	cc                   	int3   
  20176c:	cc                   	int3   
  20176d:	cc                   	int3   
  20176e:	cc                   	int3   
  20176f:	cc                   	int3   
  201770:	cc                   	int3   
  201771:	cc                   	int3   
  201772:	cc                   	int3   
  201773:	cc                   	int3   
  201774:	cc                   	int3   
  201775:	cc                   	int3   
  201776:	cc                   	int3   
  201777:	cc                   	int3   
  201778:	cc                   	int3   
  201779:	cc                   	int3   
  20177a:	cc                   	int3   
  20177b:	cc                   	int3   
  20177c:	cc                   	int3   
  20177d:	cc                   	int3   
  20177e:	cc                   	int3   
  20177f:	cc                   	int3   
  201780:	cc                   	int3   
  201781:	cc                   	int3   
  201782:	cc                   	int3   
  201783:	cc                   	int3   
  201784:	cc                   	int3   
  201785:	cc                   	int3   
  201786:	cc                   	int3   
  201787:	cc                   	int3   
  201788:	cc                   	int3   
  201789:	cc                   	int3   
  20178a:	cc                   	int3   
  20178b:	cc                   	int3   
  20178c:	cc                   	int3   
  20178d:	cc                   	int3   
  20178e:	cc                   	int3   
  20178f:	cc                   	int3   
  201790:	cc                   	int3   
  201791:	cc                   	int3   
  201792:	cc                   	int3   
  201793:	cc                   	int3   
  201794:	cc                   	int3   
  201795:	cc                   	int3   
  201796:	cc                   	int3   
  201797:	cc                   	int3   
  201798:	cc                   	int3   
  201799:	cc                   	int3   
  20179a:	cc                   	int3   
  20179b:	cc                   	int3   
  20179c:	cc                   	int3   
  20179d:	cc                   	int3   
  20179e:	cc                   	int3   
  20179f:	cc                   	int3   
  2017a0:	cc                   	int3   
  2017a1:	cc                   	int3   
  2017a2:	cc                   	int3   
  2017a3:	cc                   	int3   
  2017a4:	cc                   	int3   
  2017a5:	cc                   	int3   
  2017a6:	cc                   	int3   
  2017a7:	cc                   	int3   
  2017a8:	cc                   	int3   
  2017a9:	cc                   	int3   
  2017aa:	cc                   	int3   
  2017ab:	cc                   	int3   
  2017ac:	cc                   	int3   
  2017ad:	cc                   	int3   
  2017ae:	cc                   	int3   
  2017af:	cc                   	int3   
  2017b0:	cc                   	int3   
  2017b1:	cc                   	int3   
  2017b2:	cc                   	int3   
  2017b3:	cc                   	int3   
  2017b4:	cc                   	int3   
  2017b5:	cc                   	int3   
  2017b6:	cc                   	int3   
  2017b7:	cc                   	int3   
  2017b8:	cc                   	int3   
  2017b9:	cc                   	int3   
  2017ba:	cc                   	int3   
  2017bb:	cc                   	int3   
  2017bc:	cc                   	int3   
  2017bd:	cc                   	int3   
  2017be:	cc                   	int3   
  2017bf:	cc                   	int3   
  2017c0:	cc                   	int3   
  2017c1:	cc                   	int3   
  2017c2:	cc                   	int3   
  2017c3:	cc                   	int3   
  2017c4:	cc                   	int3   
  2017c5:	cc                   	int3   
  2017c6:	cc                   	int3   
  2017c7:	cc                   	int3   
  2017c8:	cc                   	int3   
  2017c9:	cc                   	int3   
  2017ca:	cc                   	int3   
  2017cb:	cc                   	int3   
  2017cc:	cc                   	int3   
  2017cd:	cc                   	int3   
  2017ce:	cc                   	int3   
  2017cf:	cc                   	int3   
  2017d0:	cc                   	int3   
  2017d1:	cc                   	int3   
  2017d2:	cc                   	int3   
  2017d3:	cc                   	int3   
  2017d4:	cc                   	int3   
  2017d5:	cc                   	int3   
  2017d6:	cc                   	int3   
  2017d7:	cc                   	int3   
  2017d8:	cc                   	int3   
  2017d9:	cc                   	int3   
  2017da:	cc                   	int3   
  2017db:	cc                   	int3   
  2017dc:	cc                   	int3   
  2017dd:	cc                   	int3   
  2017de:	cc                   	int3   
  2017df:	cc                   	int3   
  2017e0:	cc                   	int3   
  2017e1:	cc                   	int3   
  2017e2:	cc                   	int3   
  2017e3:	cc                   	int3   
  2017e4:	cc                   	int3   
  2017e5:	cc                   	int3   
  2017e6:	cc                   	int3   
  2017e7:	cc                   	int3   
  2017e8:	cc                   	int3   
  2017e9:	cc                   	int3   
  2017ea:	cc                   	int3   
  2017eb:	cc                   	int3   
  2017ec:	cc                   	int3   
  2017ed:	cc                   	int3   
  2017ee:	cc                   	int3   
  2017ef:	cc                   	int3   
  2017f0:	cc                   	int3   
  2017f1:	cc                   	int3   
  2017f2:	cc                   	int3   
  2017f3:	cc                   	int3   
  2017f4:	cc                   	int3   
  2017f5:	cc                   	int3   
  2017f6:	cc                   	int3   
  2017f7:	cc                   	int3   
  2017f8:	cc                   	int3   
  2017f9:	cc                   	int3   
  2017fa:	cc                   	int3   
  2017fb:	cc                   	int3   
  2017fc:	cc                   	int3   
  2017fd:	cc                   	int3   
  2017fe:	cc                   	int3   
  2017ff:	cc                   	int3   
  201800:	cc                   	int3   
  201801:	cc                   	int3   
  201802:	cc                   	int3   
  201803:	cc                   	int3   
  201804:	cc                   	int3   
  201805:	cc                   	int3   
  201806:	cc                   	int3   
  201807:	cc                   	int3   
  201808:	cc                   	int3   
  201809:	cc                   	int3   
  20180a:	cc                   	int3   
  20180b:	cc                   	int3   
  20180c:	cc                   	int3   
  20180d:	cc                   	int3   
  20180e:	cc                   	int3   
  20180f:	cc                   	int3   
  201810:	cc                   	int3   
  201811:	cc                   	int3   
  201812:	cc                   	int3   
  201813:	cc                   	int3   
  201814:	cc                   	int3   
  201815:	cc                   	int3   
  201816:	cc                   	int3   
  201817:	cc                   	int3   
  201818:	cc                   	int3   
  201819:	cc                   	int3   
  20181a:	cc                   	int3   
  20181b:	cc                   	int3   
  20181c:	cc                   	int3   
  20181d:	cc                   	int3   
  20181e:	cc                   	int3   
  20181f:	cc                   	int3   
  201820:	cc                   	int3   
  201821:	cc                   	int3   
  201822:	cc                   	int3   
  201823:	cc                   	int3   
  201824:	cc                   	int3   
  201825:	cc                   	int3   
  201826:	cc                   	int3   
  201827:	cc                   	int3   
  201828:	cc                   	int3   
  201829:	cc                   	int3   
  20182a:	cc                   	int3   
  20182b:	cc                   	int3   
  20182c:	cc                   	int3   
  20182d:	cc                   	int3   
  20182e:	cc                   	int3   
  20182f:	cc                   	int3   
  201830:	cc                   	int3   
  201831:	cc                   	int3   
  201832:	cc                   	int3   
  201833:	cc                   	int3   
  201834:	cc                   	int3   
  201835:	cc                   	int3   
  201836:	cc                   	int3   
  201837:	cc                   	int3   
  201838:	cc                   	int3   
  201839:	cc                   	int3   
  20183a:	cc                   	int3   
  20183b:	cc                   	int3   
  20183c:	cc                   	int3   
  20183d:	cc                   	int3   
  20183e:	cc                   	int3   
  20183f:	cc                   	int3   
  201840:	cc                   	int3   
  201841:	cc                   	int3   
  201842:	cc                   	int3   
  201843:	cc                   	int3   
  201844:	cc                   	int3   
  201845:	cc                   	int3   
  201846:	cc                   	int3   
  201847:	cc                   	int3   
  201848:	cc                   	int3   
  201849:	cc                   	int3   
  20184a:	cc                   	int3   
  20184b:	cc                   	int3   
  20184c:	cc                   	int3   
  20184d:	cc                   	int3   
  20184e:	cc                   	int3   
  20184f:	cc                   	int3   
  201850:	cc                   	int3   
  201851:	cc                   	int3   
  201852:	cc                   	int3   
  201853:	cc                   	int3   
  201854:	cc                   	int3   
  201855:	cc                   	int3   
  201856:	cc                   	int3   
  201857:	cc                   	int3   
  201858:	cc                   	int3   
  201859:	cc                   	int3   
  20185a:	cc                   	int3   
  20185b:	cc                   	int3   
  20185c:	cc                   	int3   
  20185d:	cc                   	int3   
  20185e:	cc                   	int3   
  20185f:	cc                   	int3   
  201860:	cc                   	int3   
  201861:	cc                   	int3   
  201862:	cc                   	int3   
  201863:	cc                   	int3   
  201864:	cc                   	int3   
  201865:	cc                   	int3   
  201866:	cc                   	int3   
  201867:	cc                   	int3   
  201868:	cc                   	int3   
  201869:	cc                   	int3   
  20186a:	cc                   	int3   
  20186b:	cc                   	int3   
  20186c:	cc                   	int3   
  20186d:	cc                   	int3   
  20186e:	cc                   	int3   
  20186f:	cc                   	int3   
  201870:	cc                   	int3   
  201871:	cc                   	int3   
  201872:	cc                   	int3   
  201873:	cc                   	int3   
  201874:	cc                   	int3   
  201875:	cc                   	int3   
  201876:	cc                   	int3   
  201877:	cc                   	int3   
  201878:	cc                   	int3   
  201879:	cc                   	int3   
  20187a:	cc                   	int3   
  20187b:	cc                   	int3   
  20187c:	cc                   	int3   
  20187d:	cc                   	int3   
  20187e:	cc                   	int3   
  20187f:	cc                   	int3   
  201880:	cc                   	int3   
  201881:	cc                   	int3   
  201882:	cc                   	int3   
  201883:	cc                   	int3   
  201884:	cc                   	int3   
  201885:	cc                   	int3   
  201886:	cc                   	int3   
  201887:	cc                   	int3   
  201888:	cc                   	int3   
  201889:	cc                   	int3   
  20188a:	cc                   	int3   
  20188b:	cc                   	int3   
  20188c:	cc                   	int3   
  20188d:	cc                   	int3   
  20188e:	cc                   	int3   
  20188f:	cc                   	int3   
  201890:	cc                   	int3   
  201891:	cc                   	int3   
  201892:	cc                   	int3   
  201893:	cc                   	int3   
  201894:	cc                   	int3   
  201895:	cc                   	int3   
  201896:	cc                   	int3   
  201897:	cc                   	int3   
  201898:	cc                   	int3   
  201899:	cc                   	int3   
  20189a:	cc                   	int3   
  20189b:	cc                   	int3   
  20189c:	cc                   	int3   
  20189d:	cc                   	int3   
  20189e:	cc                   	int3   
  20189f:	cc                   	int3   
  2018a0:	cc                   	int3   
  2018a1:	cc                   	int3   
  2018a2:	cc                   	int3   
  2018a3:	cc                   	int3   
  2018a4:	cc                   	int3   
  2018a5:	cc                   	int3   
  2018a6:	cc                   	int3   
  2018a7:	cc                   	int3   
  2018a8:	cc                   	int3   
  2018a9:	cc                   	int3   
  2018aa:	cc                   	int3   
  2018ab:	cc                   	int3   
  2018ac:	cc                   	int3   
  2018ad:	cc                   	int3   
  2018ae:	cc                   	int3   
  2018af:	cc                   	int3   
  2018b0:	cc                   	int3   
  2018b1:	cc                   	int3   
  2018b2:	cc                   	int3   
  2018b3:	cc                   	int3   
  2018b4:	cc                   	int3   
  2018b5:	cc                   	int3   
  2018b6:	cc                   	int3   
  2018b7:	cc                   	int3   
  2018b8:	cc                   	int3   
  2018b9:	cc                   	int3   
  2018ba:	cc                   	int3   
  2018bb:	cc                   	int3   
  2018bc:	cc                   	int3   
  2018bd:	cc                   	int3   
  2018be:	cc                   	int3   
  2018bf:	cc                   	int3   
  2018c0:	cc                   	int3   
  2018c1:	cc                   	int3   
  2018c2:	cc                   	int3   
  2018c3:	cc                   	int3   
  2018c4:	cc                   	int3   
  2018c5:	cc                   	int3   
  2018c6:	cc                   	int3   
  2018c7:	cc                   	int3   
  2018c8:	cc                   	int3   
  2018c9:	cc                   	int3   
  2018ca:	cc                   	int3   
  2018cb:	cc                   	int3   
  2018cc:	cc                   	int3   
  2018cd:	cc                   	int3   
  2018ce:	cc                   	int3   
  2018cf:	cc                   	int3   
  2018d0:	cc                   	int3   
  2018d1:	cc                   	int3   
  2018d2:	cc                   	int3   
  2018d3:	cc                   	int3   
  2018d4:	cc                   	int3   
  2018d5:	cc                   	int3   
  2018d6:	cc                   	int3   
  2018d7:	cc                   	int3   
  2018d8:	cc                   	int3   
  2018d9:	cc                   	int3   
  2018da:	cc                   	int3   
  2018db:	cc                   	int3   
  2018dc:	cc                   	int3   
  2018dd:	cc                   	int3   
  2018de:	cc                   	int3   
  2018df:	cc                   	int3   
  2018e0:	cc                   	int3   
  2018e1:	cc                   	int3   
  2018e2:	cc                   	int3   
  2018e3:	cc                   	int3   
  2018e4:	cc                   	int3   
  2018e5:	cc                   	int3   
  2018e6:	cc                   	int3   
  2018e7:	cc                   	int3   
  2018e8:	cc                   	int3   
  2018e9:	cc                   	int3   
  2018ea:	cc                   	int3   
  2018eb:	cc                   	int3   
  2018ec:	cc                   	int3   
  2018ed:	cc                   	int3   
  2018ee:	cc                   	int3   
  2018ef:	cc                   	int3   
  2018f0:	cc                   	int3   
  2018f1:	cc                   	int3   
  2018f2:	cc                   	int3   
  2018f3:	cc                   	int3   
  2018f4:	cc                   	int3   
  2018f5:	cc                   	int3   
  2018f6:	cc                   	int3   
  2018f7:	cc                   	int3   
  2018f8:	cc                   	int3   
  2018f9:	cc                   	int3   
  2018fa:	cc                   	int3   
  2018fb:	cc                   	int3   
  2018fc:	cc                   	int3   
  2018fd:	cc                   	int3   
  2018fe:	cc                   	int3   
  2018ff:	cc                   	int3   
  201900:	cc                   	int3   
  201901:	cc                   	int3   
  201902:	cc                   	int3   
  201903:	cc                   	int3   
  201904:	cc                   	int3   
  201905:	cc                   	int3   
  201906:	cc                   	int3   
  201907:	cc                   	int3   
  201908:	cc                   	int3   
  201909:	cc                   	int3   
  20190a:	cc                   	int3   
  20190b:	cc                   	int3   
  20190c:	cc                   	int3   
  20190d:	cc                   	int3   
  20190e:	cc                   	int3   
  20190f:	cc                   	int3   
  201910:	cc                   	int3   
  201911:	cc                   	int3   
  201912:	cc                   	int3   
  201913:	cc                   	int3   
  201914:	cc                   	int3   
  201915:	cc                   	int3   
  201916:	cc                   	int3   
  201917:	cc                   	int3   
  201918:	cc                   	int3   
  201919:	cc                   	int3   
  20191a:	cc                   	int3   
  20191b:	cc                   	int3   
  20191c:	cc                   	int3   
  20191d:	cc                   	int3   
  20191e:	cc                   	int3   
  20191f:	cc                   	int3   
  201920:	cc                   	int3   
  201921:	cc                   	int3   
  201922:	cc                   	int3   
  201923:	cc                   	int3   
  201924:	cc                   	int3   
  201925:	cc                   	int3   
  201926:	cc                   	int3   
  201927:	cc                   	int3   
  201928:	cc                   	int3   
  201929:	cc                   	int3   
  20192a:	cc                   	int3   
  20192b:	cc                   	int3   
  20192c:	cc                   	int3   
  20192d:	cc                   	int3   
  20192e:	cc                   	int3   
  20192f:	cc                   	int3   
  201930:	cc                   	int3   
  201931:	cc                   	int3   
  201932:	cc                   	int3   
  201933:	cc                   	int3   
  201934:	cc                   	int3   
  201935:	cc                   	int3   
  201936:	cc                   	int3   
  201937:	cc                   	int3   
  201938:	cc                   	int3   
  201939:	cc                   	int3   
  20193a:	cc                   	int3   
  20193b:	cc                   	int3   
  20193c:	cc                   	int3   
  20193d:	cc                   	int3   
  20193e:	cc                   	int3   
  20193f:	cc                   	int3   
  201940:	cc                   	int3   
  201941:	cc                   	int3   
  201942:	cc                   	int3   
  201943:	cc                   	int3   
  201944:	cc                   	int3   
  201945:	cc                   	int3   
  201946:	cc                   	int3   
  201947:	cc                   	int3   
  201948:	cc                   	int3   
  201949:	cc                   	int3   
  20194a:	cc                   	int3   
  20194b:	cc                   	int3   
  20194c:	cc                   	int3   
  20194d:	cc                   	int3   
  20194e:	cc                   	int3   
  20194f:	cc                   	int3   
  201950:	cc                   	int3   
  201951:	cc                   	int3   
  201952:	cc                   	int3   
  201953:	cc                   	int3   
  201954:	cc                   	int3   
  201955:	cc                   	int3   
  201956:	cc                   	int3   
  201957:	cc                   	int3   
  201958:	cc                   	int3   
  201959:	cc                   	int3   
  20195a:	cc                   	int3   
  20195b:	cc                   	int3   
  20195c:	cc                   	int3   
  20195d:	cc                   	int3   
  20195e:	cc                   	int3   
  20195f:	cc                   	int3   
  201960:	cc                   	int3   
  201961:	cc                   	int3   
  201962:	cc                   	int3   
  201963:	cc                   	int3   
  201964:	cc                   	int3   
  201965:	cc                   	int3   
  201966:	cc                   	int3   
  201967:	cc                   	int3   
  201968:	cc                   	int3   
  201969:	cc                   	int3   
  20196a:	cc                   	int3   
  20196b:	cc                   	int3   
  20196c:	cc                   	int3   
  20196d:	cc                   	int3   
  20196e:	cc                   	int3   
  20196f:	cc                   	int3   
  201970:	cc                   	int3   
  201971:	cc                   	int3   
  201972:	cc                   	int3   
  201973:	cc                   	int3   
  201974:	cc                   	int3   
  201975:	cc                   	int3   
  201976:	cc                   	int3   
  201977:	cc                   	int3   
  201978:	cc                   	int3   
  201979:	cc                   	int3   
  20197a:	cc                   	int3   
  20197b:	cc                   	int3   
  20197c:	cc                   	int3   
  20197d:	cc                   	int3   
  20197e:	cc                   	int3   
  20197f:	cc                   	int3   
  201980:	cc                   	int3   
  201981:	cc                   	int3   
  201982:	cc                   	int3   
  201983:	cc                   	int3   
  201984:	cc                   	int3   
  201985:	cc                   	int3   
  201986:	cc                   	int3   
  201987:	cc                   	int3   
  201988:	cc                   	int3   
  201989:	cc                   	int3   
  20198a:	cc                   	int3   
  20198b:	cc                   	int3   
  20198c:	cc                   	int3   
  20198d:	cc                   	int3   
  20198e:	cc                   	int3   
  20198f:	cc                   	int3   
  201990:	cc                   	int3   
  201991:	cc                   	int3   
  201992:	cc                   	int3   
  201993:	cc                   	int3   
  201994:	cc                   	int3   
  201995:	cc                   	int3   
  201996:	cc                   	int3   
  201997:	cc                   	int3   
  201998:	cc                   	int3   
  201999:	cc                   	int3   
  20199a:	cc                   	int3   
  20199b:	cc                   	int3   
  20199c:	cc                   	int3   
  20199d:	cc                   	int3   
  20199e:	cc                   	int3   
  20199f:	cc                   	int3   
  2019a0:	cc                   	int3   
  2019a1:	cc                   	int3   
  2019a2:	cc                   	int3   
  2019a3:	cc                   	int3   
  2019a4:	cc                   	int3   
  2019a5:	cc                   	int3   
  2019a6:	cc                   	int3   
  2019a7:	cc                   	int3   
  2019a8:	cc                   	int3   
  2019a9:	cc                   	int3   
  2019aa:	cc                   	int3   
  2019ab:	cc                   	int3   
  2019ac:	cc                   	int3   
  2019ad:	cc                   	int3   
  2019ae:	cc                   	int3   
  2019af:	cc                   	int3   
  2019b0:	cc                   	int3   
  2019b1:	cc                   	int3   
  2019b2:	cc                   	int3   
  2019b3:	cc                   	int3   
  2019b4:	cc                   	int3   
  2019b5:	cc                   	int3   
  2019b6:	cc                   	int3   
  2019b7:	cc                   	int3   
  2019b8:	cc                   	int3   
  2019b9:	cc                   	int3   
  2019ba:	cc                   	int3   
  2019bb:	cc                   	int3   
  2019bc:	cc                   	int3   
  2019bd:	cc                   	int3   
  2019be:	cc                   	int3   
  2019bf:	cc                   	int3   
  2019c0:	cc                   	int3   
  2019c1:	cc                   	int3   
  2019c2:	cc                   	int3   
  2019c3:	cc                   	int3   
  2019c4:	cc                   	int3   
  2019c5:	cc                   	int3   
  2019c6:	cc                   	int3   
  2019c7:	cc                   	int3   
  2019c8:	cc                   	int3   
  2019c9:	cc                   	int3   
  2019ca:	cc                   	int3   
  2019cb:	cc                   	int3   
  2019cc:	cc                   	int3   
  2019cd:	cc                   	int3   
  2019ce:	cc                   	int3   
  2019cf:	cc                   	int3   
  2019d0:	cc                   	int3   
  2019d1:	cc                   	int3   
  2019d2:	cc                   	int3   
  2019d3:	cc                   	int3   
  2019d4:	cc                   	int3   
  2019d5:	cc                   	int3   
  2019d6:	cc                   	int3   
  2019d7:	cc                   	int3   
  2019d8:	cc                   	int3   
  2019d9:	cc                   	int3   
  2019da:	cc                   	int3   
  2019db:	cc                   	int3   
  2019dc:	cc                   	int3   
  2019dd:	cc                   	int3   
  2019de:	cc                   	int3   
  2019df:	cc                   	int3   
  2019e0:	cc                   	int3   
  2019e1:	cc                   	int3   
  2019e2:	cc                   	int3   
  2019e3:	cc                   	int3   
  2019e4:	cc                   	int3   
  2019e5:	cc                   	int3   
  2019e6:	cc                   	int3   
  2019e7:	cc                   	int3   
  2019e8:	cc                   	int3   
  2019e9:	cc                   	int3   
  2019ea:	cc                   	int3   
  2019eb:	cc                   	int3   
  2019ec:	cc                   	int3   
  2019ed:	cc                   	int3   
  2019ee:	cc                   	int3   
  2019ef:	cc                   	int3   
  2019f0:	cc                   	int3   
  2019f1:	cc                   	int3   
  2019f2:	cc                   	int3   
  2019f3:	cc                   	int3   
  2019f4:	cc                   	int3   
  2019f5:	cc                   	int3   
  2019f6:	cc                   	int3   
  2019f7:	cc                   	int3   
  2019f8:	cc                   	int3   
  2019f9:	cc                   	int3   
  2019fa:	cc                   	int3   
  2019fb:	cc                   	int3   
  2019fc:	cc                   	int3   
  2019fd:	cc                   	int3   
  2019fe:	cc                   	int3   
  2019ff:	cc                   	int3   
  201a00:	cc                   	int3   
  201a01:	cc                   	int3   
  201a02:	cc                   	int3   
  201a03:	cc                   	int3   
  201a04:	cc                   	int3   
  201a05:	cc                   	int3   
  201a06:	cc                   	int3   
  201a07:	cc                   	int3   
  201a08:	cc                   	int3   
  201a09:	cc                   	int3   
  201a0a:	cc                   	int3   
  201a0b:	cc                   	int3   
  201a0c:	cc                   	int3   
  201a0d:	cc                   	int3   
  201a0e:	cc                   	int3   
  201a0f:	cc                   	int3   
  201a10:	cc                   	int3   
  201a11:	cc                   	int3   
  201a12:	cc                   	int3   
  201a13:	cc                   	int3   
  201a14:	cc                   	int3   
  201a15:	cc                   	int3   
  201a16:	cc                   	int3   
  201a17:	cc                   	int3   
  201a18:	cc                   	int3   
  201a19:	cc                   	int3   
  201a1a:	cc                   	int3   
  201a1b:	cc                   	int3   
  201a1c:	cc                   	int3   
  201a1d:	cc                   	int3   
  201a1e:	cc                   	int3   
  201a1f:	cc                   	int3   
  201a20:	cc                   	int3   
  201a21:	cc                   	int3   
  201a22:	cc                   	int3   
  201a23:	cc                   	int3   
  201a24:	cc                   	int3   
  201a25:	cc                   	int3   
  201a26:	cc                   	int3   
  201a27:	cc                   	int3   
  201a28:	cc                   	int3   
  201a29:	cc                   	int3   
  201a2a:	cc                   	int3   
  201a2b:	cc                   	int3   
  201a2c:	cc                   	int3   
  201a2d:	cc                   	int3   
  201a2e:	cc                   	int3   
  201a2f:	cc                   	int3   
  201a30:	cc                   	int3   
  201a31:	cc                   	int3   
  201a32:	cc                   	int3   
  201a33:	cc                   	int3   
  201a34:	cc                   	int3   
  201a35:	cc                   	int3   
  201a36:	cc                   	int3   
  201a37:	cc                   	int3   
  201a38:	cc                   	int3   
  201a39:	cc                   	int3   
  201a3a:	cc                   	int3   
  201a3b:	cc                   	int3   
  201a3c:	cc                   	int3   
  201a3d:	cc                   	int3   
  201a3e:	cc                   	int3   
  201a3f:	cc                   	int3   
  201a40:	cc                   	int3   
  201a41:	cc                   	int3   
  201a42:	cc                   	int3   
  201a43:	cc                   	int3   
  201a44:	cc                   	int3   
  201a45:	cc                   	int3   
  201a46:	cc                   	int3   
  201a47:	cc                   	int3   
  201a48:	cc                   	int3   
  201a49:	cc                   	int3   
  201a4a:	cc                   	int3   
  201a4b:	cc                   	int3   
  201a4c:	cc                   	int3   
  201a4d:	cc                   	int3   
  201a4e:	cc                   	int3   
  201a4f:	cc                   	int3   
  201a50:	cc                   	int3   
  201a51:	cc                   	int3   
  201a52:	cc                   	int3   
  201a53:	cc                   	int3   
  201a54:	cc                   	int3   
  201a55:	cc                   	int3   
  201a56:	cc                   	int3   
  201a57:	cc                   	int3   
  201a58:	cc                   	int3   
  201a59:	cc                   	int3   
  201a5a:	cc                   	int3   
  201a5b:	cc                   	int3   
  201a5c:	cc                   	int3   
  201a5d:	cc                   	int3   
  201a5e:	cc                   	int3   
  201a5f:	cc                   	int3   
  201a60:	cc                   	int3   
  201a61:	cc                   	int3   
  201a62:	cc                   	int3   
  201a63:	cc                   	int3   
  201a64:	cc                   	int3   
  201a65:	cc                   	int3   
  201a66:	cc                   	int3   
  201a67:	cc                   	int3   
  201a68:	cc                   	int3   
  201a69:	cc                   	int3   
  201a6a:	cc                   	int3   
  201a6b:	cc                   	int3   
  201a6c:	cc                   	int3   
  201a6d:	cc                   	int3   
  201a6e:	cc                   	int3   
  201a6f:	cc                   	int3   
  201a70:	cc                   	int3   
  201a71:	cc                   	int3   
  201a72:	cc                   	int3   
  201a73:	cc                   	int3   
  201a74:	cc                   	int3   
  201a75:	cc                   	int3   
  201a76:	cc                   	int3   
  201a77:	cc                   	int3   
  201a78:	cc                   	int3   
  201a79:	cc                   	int3   
  201a7a:	cc                   	int3   
  201a7b:	cc                   	int3   
  201a7c:	cc                   	int3   
  201a7d:	cc                   	int3   
  201a7e:	cc                   	int3   
  201a7f:	cc                   	int3   
  201a80:	cc                   	int3   
  201a81:	cc                   	int3   
  201a82:	cc                   	int3   
  201a83:	cc                   	int3   
  201a84:	cc                   	int3   
  201a85:	cc                   	int3   
  201a86:	cc                   	int3   
  201a87:	cc                   	int3   
  201a88:	cc                   	int3   
  201a89:	cc                   	int3   
  201a8a:	cc                   	int3   
  201a8b:	cc                   	int3   
  201a8c:	cc                   	int3   
  201a8d:	cc                   	int3   
  201a8e:	cc                   	int3   
  201a8f:	cc                   	int3   
  201a90:	cc                   	int3   
  201a91:	cc                   	int3   
  201a92:	cc                   	int3   
  201a93:	cc                   	int3   
  201a94:	cc                   	int3   
  201a95:	cc                   	int3   
  201a96:	cc                   	int3   
  201a97:	cc                   	int3   
  201a98:	cc                   	int3   
  201a99:	cc                   	int3   
  201a9a:	cc                   	int3   
  201a9b:	cc                   	int3   
  201a9c:	cc                   	int3   
  201a9d:	cc                   	int3   
  201a9e:	cc                   	int3   
  201a9f:	cc                   	int3   
  201aa0:	cc                   	int3   
  201aa1:	cc                   	int3   
  201aa2:	cc                   	int3   
  201aa3:	cc                   	int3   
  201aa4:	cc                   	int3   
  201aa5:	cc                   	int3   
  201aa6:	cc                   	int3   
  201aa7:	cc                   	int3   
  201aa8:	cc                   	int3   
  201aa9:	cc                   	int3   
  201aaa:	cc                   	int3   
  201aab:	cc                   	int3   
  201aac:	cc                   	int3   
  201aad:	cc                   	int3   
  201aae:	cc                   	int3   
  201aaf:	cc                   	int3   
  201ab0:	cc                   	int3   
  201ab1:	cc                   	int3   
  201ab2:	cc                   	int3   
  201ab3:	cc                   	int3   
  201ab4:	cc                   	int3   
  201ab5:	cc                   	int3   
  201ab6:	cc                   	int3   
  201ab7:	cc                   	int3   
  201ab8:	cc                   	int3   
  201ab9:	cc                   	int3   
  201aba:	cc                   	int3   
  201abb:	cc                   	int3   
  201abc:	cc                   	int3   
  201abd:	cc                   	int3   
  201abe:	cc                   	int3   
  201abf:	cc                   	int3   
  201ac0:	cc                   	int3   
  201ac1:	cc                   	int3   
  201ac2:	cc                   	int3   
  201ac3:	cc                   	int3   
  201ac4:	cc                   	int3   
  201ac5:	cc                   	int3   
  201ac6:	cc                   	int3   
  201ac7:	cc                   	int3   
  201ac8:	cc                   	int3   
  201ac9:	cc                   	int3   
  201aca:	cc                   	int3   
  201acb:	cc                   	int3   
  201acc:	cc                   	int3   
  201acd:	cc                   	int3   
  201ace:	cc                   	int3   
  201acf:	cc                   	int3   
  201ad0:	cc                   	int3   
  201ad1:	cc                   	int3   
  201ad2:	cc                   	int3   
  201ad3:	cc                   	int3   
  201ad4:	cc                   	int3   
  201ad5:	cc                   	int3   
  201ad6:	cc                   	int3   
  201ad7:	cc                   	int3   
  201ad8:	cc                   	int3   
  201ad9:	cc                   	int3   
  201ada:	cc                   	int3   
  201adb:	cc                   	int3   
  201adc:	cc                   	int3   
  201add:	cc                   	int3   
  201ade:	cc                   	int3   
  201adf:	cc                   	int3   
  201ae0:	cc                   	int3   
  201ae1:	cc                   	int3   
  201ae2:	cc                   	int3   
  201ae3:	cc                   	int3   
  201ae4:	cc                   	int3   
  201ae5:	cc                   	int3   
  201ae6:	cc                   	int3   
  201ae7:	cc                   	int3   
  201ae8:	cc                   	int3   
  201ae9:	cc                   	int3   
  201aea:	cc                   	int3   
  201aeb:	cc                   	int3   
  201aec:	cc                   	int3   
  201aed:	cc                   	int3   
  201aee:	cc                   	int3   
  201aef:	cc                   	int3   
  201af0:	cc                   	int3   
  201af1:	cc                   	int3   
  201af2:	cc                   	int3   
  201af3:	cc                   	int3   
  201af4:	cc                   	int3   
  201af5:	cc                   	int3   
  201af6:	cc                   	int3   
  201af7:	cc                   	int3   
  201af8:	cc                   	int3   
  201af9:	cc                   	int3   
  201afa:	cc                   	int3   
  201afb:	cc                   	int3   
  201afc:	cc                   	int3   
  201afd:	cc                   	int3   
  201afe:	cc                   	int3   
  201aff:	cc                   	int3   
  201b00:	cc                   	int3   
  201b01:	cc                   	int3   
  201b02:	cc                   	int3   
  201b03:	cc                   	int3   
  201b04:	cc                   	int3   
  201b05:	cc                   	int3   
  201b06:	cc                   	int3   
  201b07:	cc                   	int3   
  201b08:	cc                   	int3   
  201b09:	cc                   	int3   
  201b0a:	cc                   	int3   
  201b0b:	cc                   	int3   
  201b0c:	cc                   	int3   
  201b0d:	cc                   	int3   
  201b0e:	cc                   	int3   
  201b0f:	cc                   	int3   
  201b10:	cc                   	int3   
  201b11:	cc                   	int3   
  201b12:	cc                   	int3   
  201b13:	cc                   	int3   
  201b14:	cc                   	int3   
  201b15:	cc                   	int3   
  201b16:	cc                   	int3   
  201b17:	cc                   	int3   
  201b18:	cc                   	int3   
  201b19:	cc                   	int3   
  201b1a:	cc                   	int3   
  201b1b:	cc                   	int3   
  201b1c:	cc                   	int3   
  201b1d:	cc                   	int3   
  201b1e:	cc                   	int3   
  201b1f:	cc                   	int3   
  201b20:	cc                   	int3   
  201b21:	cc                   	int3   
  201b22:	cc                   	int3   
  201b23:	cc                   	int3   
  201b24:	cc                   	int3   
  201b25:	cc                   	int3   
  201b26:	cc                   	int3   
  201b27:	cc                   	int3   
  201b28:	cc                   	int3   
  201b29:	cc                   	int3   
  201b2a:	cc                   	int3   
  201b2b:	cc                   	int3   
  201b2c:	cc                   	int3   
  201b2d:	cc                   	int3   
  201b2e:	cc                   	int3   
  201b2f:	cc                   	int3   
  201b30:	cc                   	int3   
  201b31:	cc                   	int3   
  201b32:	cc                   	int3   
  201b33:	cc                   	int3   
  201b34:	cc                   	int3   
  201b35:	cc                   	int3   
  201b36:	cc                   	int3   
  201b37:	cc                   	int3   
  201b38:	cc                   	int3   
  201b39:	cc                   	int3   
  201b3a:	cc                   	int3   
  201b3b:	cc                   	int3   
  201b3c:	cc                   	int3   
  201b3d:	cc                   	int3   
  201b3e:	cc                   	int3   
  201b3f:	cc                   	int3   
  201b40:	cc                   	int3   
  201b41:	cc                   	int3   
  201b42:	cc                   	int3   
  201b43:	cc                   	int3   
  201b44:	cc                   	int3   
  201b45:	cc                   	int3   
  201b46:	cc                   	int3   
  201b47:	cc                   	int3   
  201b48:	cc                   	int3   
  201b49:	cc                   	int3   
  201b4a:	cc                   	int3   
  201b4b:	cc                   	int3   
  201b4c:	cc                   	int3   
  201b4d:	cc                   	int3   
  201b4e:	cc                   	int3   
  201b4f:	cc                   	int3   
  201b50:	cc                   	int3   
  201b51:	cc                   	int3   
  201b52:	cc                   	int3   
  201b53:	cc                   	int3   
  201b54:	cc                   	int3   
  201b55:	cc                   	int3   
  201b56:	cc                   	int3   
  201b57:	cc                   	int3   
  201b58:	cc                   	int3   
  201b59:	cc                   	int3   
  201b5a:	cc                   	int3   
  201b5b:	cc                   	int3   
  201b5c:	cc                   	int3   
  201b5d:	cc                   	int3   
  201b5e:	cc                   	int3   
  201b5f:	cc                   	int3   
  201b60:	cc                   	int3   
  201b61:	cc                   	int3   
  201b62:	cc                   	int3   
  201b63:	cc                   	int3   
  201b64:	cc                   	int3   
  201b65:	cc                   	int3   
  201b66:	cc                   	int3   
  201b67:	cc                   	int3   
  201b68:	cc                   	int3   
  201b69:	cc                   	int3   
  201b6a:	cc                   	int3   
  201b6b:	cc                   	int3   
  201b6c:	cc                   	int3   
  201b6d:	cc                   	int3   
  201b6e:	cc                   	int3   
  201b6f:	cc                   	int3   
  201b70:	cc                   	int3   
  201b71:	cc                   	int3   
  201b72:	cc                   	int3   
  201b73:	cc                   	int3   
  201b74:	cc                   	int3   
  201b75:	cc                   	int3   
  201b76:	cc                   	int3   
  201b77:	cc                   	int3   
  201b78:	cc                   	int3   
  201b79:	cc                   	int3   
  201b7a:	cc                   	int3   
  201b7b:	cc                   	int3   
  201b7c:	cc                   	int3   
  201b7d:	cc                   	int3   
  201b7e:	cc                   	int3   
  201b7f:	cc                   	int3   
  201b80:	cc                   	int3   
  201b81:	cc                   	int3   
  201b82:	cc                   	int3   
  201b83:	cc                   	int3   
  201b84:	cc                   	int3   
  201b85:	cc                   	int3   
  201b86:	cc                   	int3   
  201b87:	cc                   	int3   
  201b88:	cc                   	int3   
  201b89:	cc                   	int3   
  201b8a:	cc                   	int3   
  201b8b:	cc                   	int3   
  201b8c:	cc                   	int3   
  201b8d:	cc                   	int3   
  201b8e:	cc                   	int3   
  201b8f:	cc                   	int3   
  201b90:	cc                   	int3   
  201b91:	cc                   	int3   
  201b92:	cc                   	int3   
  201b93:	cc                   	int3   
  201b94:	cc                   	int3   
  201b95:	cc                   	int3   
  201b96:	cc                   	int3   
  201b97:	cc                   	int3   
  201b98:	cc                   	int3   
  201b99:	cc                   	int3   
  201b9a:	cc                   	int3   
  201b9b:	cc                   	int3   
  201b9c:	cc                   	int3   
  201b9d:	cc                   	int3   
  201b9e:	cc                   	int3   
  201b9f:	cc                   	int3   
  201ba0:	cc                   	int3   
  201ba1:	cc                   	int3   
  201ba2:	cc                   	int3   
  201ba3:	cc                   	int3   
  201ba4:	cc                   	int3   
  201ba5:	cc                   	int3   
  201ba6:	cc                   	int3   
  201ba7:	cc                   	int3   
  201ba8:	cc                   	int3   
  201ba9:	cc                   	int3   
  201baa:	cc                   	int3   
  201bab:	cc                   	int3   
  201bac:	cc                   	int3   
  201bad:	cc                   	int3   
  201bae:	cc                   	int3   
  201baf:	cc                   	int3   
  201bb0:	cc                   	int3   
  201bb1:	cc                   	int3   
  201bb2:	cc                   	int3   
  201bb3:	cc                   	int3   
  201bb4:	cc                   	int3   
  201bb5:	cc                   	int3   
  201bb6:	cc                   	int3   
  201bb7:	cc                   	int3   
  201bb8:	cc                   	int3   
  201bb9:	cc                   	int3   
  201bba:	cc                   	int3   
  201bbb:	cc                   	int3   
  201bbc:	cc                   	int3   
  201bbd:	cc                   	int3   
  201bbe:	cc                   	int3   
  201bbf:	cc                   	int3   
  201bc0:	cc                   	int3   
  201bc1:	cc                   	int3   
  201bc2:	cc                   	int3   
  201bc3:	cc                   	int3   
  201bc4:	cc                   	int3   
  201bc5:	cc                   	int3   
  201bc6:	cc                   	int3   
  201bc7:	cc                   	int3   
  201bc8:	cc                   	int3   
  201bc9:	cc                   	int3   
  201bca:	cc                   	int3   
  201bcb:	cc                   	int3   
  201bcc:	cc                   	int3   
  201bcd:	cc                   	int3   
  201bce:	cc                   	int3   
  201bcf:	cc                   	int3   
  201bd0:	cc                   	int3   
  201bd1:	cc                   	int3   
  201bd2:	cc                   	int3   
  201bd3:	cc                   	int3   
  201bd4:	cc                   	int3   
  201bd5:	cc                   	int3   
  201bd6:	cc                   	int3   
  201bd7:	cc                   	int3   
  201bd8:	cc                   	int3   
  201bd9:	cc                   	int3   
  201bda:	cc                   	int3   
  201bdb:	cc                   	int3   
  201bdc:	cc                   	int3   
  201bdd:	cc                   	int3   
  201bde:	cc                   	int3   
  201bdf:	cc                   	int3   
  201be0:	cc                   	int3   
  201be1:	cc                   	int3   
  201be2:	cc                   	int3   
  201be3:	cc                   	int3   
  201be4:	cc                   	int3   
  201be5:	cc                   	int3   
  201be6:	cc                   	int3   
  201be7:	cc                   	int3   
  201be8:	cc                   	int3   
  201be9:	cc                   	int3   
  201bea:	cc                   	int3   
  201beb:	cc                   	int3   
  201bec:	cc                   	int3   
  201bed:	cc                   	int3   
  201bee:	cc                   	int3   
  201bef:	cc                   	int3   
  201bf0:	cc                   	int3   
  201bf1:	cc                   	int3   
  201bf2:	cc                   	int3   
  201bf3:	cc                   	int3   
  201bf4:	cc                   	int3   
  201bf5:	cc                   	int3   
  201bf6:	cc                   	int3   
  201bf7:	cc                   	int3   
  201bf8:	cc                   	int3   
  201bf9:	cc                   	int3   
  201bfa:	cc                   	int3   
  201bfb:	cc                   	int3   
  201bfc:	cc                   	int3   
  201bfd:	cc                   	int3   
  201bfe:	cc                   	int3   
  201bff:	cc                   	int3   
  201c00:	cc                   	int3   
  201c01:	cc                   	int3   
  201c02:	cc                   	int3   
  201c03:	cc                   	int3   
  201c04:	cc                   	int3   
  201c05:	cc                   	int3   
  201c06:	cc                   	int3   
  201c07:	cc                   	int3   
  201c08:	cc                   	int3   
  201c09:	cc                   	int3   
  201c0a:	cc                   	int3   
  201c0b:	cc                   	int3   
  201c0c:	cc                   	int3   
  201c0d:	cc                   	int3   
  201c0e:	cc                   	int3   
  201c0f:	cc                   	int3   
  201c10:	cc                   	int3   
  201c11:	cc                   	int3   
  201c12:	cc                   	int3   
  201c13:	cc                   	int3   
  201c14:	cc                   	int3   
  201c15:	cc                   	int3   
  201c16:	cc                   	int3   
  201c17:	cc                   	int3   
  201c18:	cc                   	int3   
  201c19:	cc                   	int3   
  201c1a:	cc                   	int3   
  201c1b:	cc                   	int3   
  201c1c:	cc                   	int3   
  201c1d:	cc                   	int3   
  201c1e:	cc                   	int3   
  201c1f:	cc                   	int3   
  201c20:	cc                   	int3   
  201c21:	cc                   	int3   
  201c22:	cc                   	int3   
  201c23:	cc                   	int3   
  201c24:	cc                   	int3   
  201c25:	cc                   	int3   
  201c26:	cc                   	int3   
  201c27:	cc                   	int3   
  201c28:	cc                   	int3   
  201c29:	cc                   	int3   
  201c2a:	cc                   	int3   
  201c2b:	cc                   	int3   
  201c2c:	cc                   	int3   
  201c2d:	cc                   	int3   
  201c2e:	cc                   	int3   
  201c2f:	cc                   	int3   
  201c30:	cc                   	int3   
  201c31:	cc                   	int3   
  201c32:	cc                   	int3   
  201c33:	cc                   	int3   
  201c34:	cc                   	int3   
  201c35:	cc                   	int3   
  201c36:	cc                   	int3   
  201c37:	cc                   	int3   
  201c38:	cc                   	int3   
  201c39:	cc                   	int3   
  201c3a:	cc                   	int3   
  201c3b:	cc                   	int3   
  201c3c:	cc                   	int3   
  201c3d:	cc                   	int3   
  201c3e:	cc                   	int3   
  201c3f:	cc                   	int3   
  201c40:	cc                   	int3   
  201c41:	cc                   	int3   
  201c42:	cc                   	int3   
  201c43:	cc                   	int3   
  201c44:	cc                   	int3   
  201c45:	cc                   	int3   
  201c46:	cc                   	int3   
  201c47:	cc                   	int3   
  201c48:	cc                   	int3   
  201c49:	cc                   	int3   
  201c4a:	cc                   	int3   
  201c4b:	cc                   	int3   
  201c4c:	cc                   	int3   
  201c4d:	cc                   	int3   
  201c4e:	cc                   	int3   
  201c4f:	cc                   	int3   
  201c50:	cc                   	int3   
  201c51:	cc                   	int3   
  201c52:	cc                   	int3   
  201c53:	cc                   	int3   
  201c54:	cc                   	int3   
  201c55:	cc                   	int3   
  201c56:	cc                   	int3   
  201c57:	cc                   	int3   
  201c58:	cc                   	int3   
  201c59:	cc                   	int3   
  201c5a:	cc                   	int3   
  201c5b:	cc                   	int3   
  201c5c:	cc                   	int3   
  201c5d:	cc                   	int3   
  201c5e:	cc                   	int3   
  201c5f:	cc                   	int3   
  201c60:	cc                   	int3   
  201c61:	cc                   	int3   
  201c62:	cc                   	int3   
  201c63:	cc                   	int3   
  201c64:	cc                   	int3   
  201c65:	cc                   	int3   
  201c66:	cc                   	int3   
  201c67:	cc                   	int3   
  201c68:	cc                   	int3   
  201c69:	cc                   	int3   
  201c6a:	cc                   	int3   
  201c6b:	cc                   	int3   
  201c6c:	cc                   	int3   
  201c6d:	cc                   	int3   
  201c6e:	cc                   	int3   
  201c6f:	cc                   	int3   
  201c70:	cc                   	int3   
  201c71:	cc                   	int3   
  201c72:	cc                   	int3   
  201c73:	cc                   	int3   
  201c74:	cc                   	int3   
  201c75:	cc                   	int3   
  201c76:	cc                   	int3   
  201c77:	cc                   	int3   
  201c78:	cc                   	int3   
  201c79:	cc                   	int3   
  201c7a:	cc                   	int3   
  201c7b:	cc                   	int3   
  201c7c:	cc                   	int3   
  201c7d:	cc                   	int3   
  201c7e:	cc                   	int3   
  201c7f:	cc                   	int3   
  201c80:	cc                   	int3   
  201c81:	cc                   	int3   
  201c82:	cc                   	int3   
  201c83:	cc                   	int3   
  201c84:	cc                   	int3   
  201c85:	cc                   	int3   
  201c86:	cc                   	int3   
  201c87:	cc                   	int3   
  201c88:	cc                   	int3   
  201c89:	cc                   	int3   
  201c8a:	cc                   	int3   
  201c8b:	cc                   	int3   
  201c8c:	cc                   	int3   
  201c8d:	cc                   	int3   
  201c8e:	cc                   	int3   
  201c8f:	cc                   	int3   
  201c90:	cc                   	int3   
  201c91:	cc                   	int3   
  201c92:	cc                   	int3   
  201c93:	cc                   	int3   
  201c94:	cc                   	int3   
  201c95:	cc                   	int3   
  201c96:	cc                   	int3   
  201c97:	cc                   	int3   
  201c98:	cc                   	int3   
  201c99:	cc                   	int3   
  201c9a:	cc                   	int3   
  201c9b:	cc                   	int3   
  201c9c:	cc                   	int3   
  201c9d:	cc                   	int3   
  201c9e:	cc                   	int3   
  201c9f:	cc                   	int3   
  201ca0:	cc                   	int3   
  201ca1:	cc                   	int3   
  201ca2:	cc                   	int3   
  201ca3:	cc                   	int3   
  201ca4:	cc                   	int3   
  201ca5:	cc                   	int3   
  201ca6:	cc                   	int3   
  201ca7:	cc                   	int3   
  201ca8:	cc                   	int3   
  201ca9:	cc                   	int3   
  201caa:	cc                   	int3   
  201cab:	cc                   	int3   
  201cac:	cc                   	int3   
  201cad:	cc                   	int3   
  201cae:	cc                   	int3   
  201caf:	cc                   	int3   
  201cb0:	cc                   	int3   
  201cb1:	cc                   	int3   
  201cb2:	cc                   	int3   
  201cb3:	cc                   	int3   
  201cb4:	cc                   	int3   
  201cb5:	cc                   	int3   
  201cb6:	cc                   	int3   
  201cb7:	cc                   	int3   
  201cb8:	cc                   	int3   
  201cb9:	cc                   	int3   
  201cba:	cc                   	int3   
  201cbb:	cc                   	int3   
  201cbc:	cc                   	int3   
  201cbd:	cc                   	int3   
  201cbe:	cc                   	int3   
  201cbf:	cc                   	int3   
  201cc0:	cc                   	int3   
  201cc1:	cc                   	int3   
  201cc2:	cc                   	int3   
  201cc3:	cc                   	int3   
  201cc4:	cc                   	int3   
  201cc5:	cc                   	int3   
  201cc6:	cc                   	int3   
  201cc7:	cc                   	int3   
  201cc8:	cc                   	int3   
  201cc9:	cc                   	int3   
  201cca:	cc                   	int3   
  201ccb:	cc                   	int3   
  201ccc:	cc                   	int3   
  201ccd:	cc                   	int3   
  201cce:	cc                   	int3   
  201ccf:	cc                   	int3   
  201cd0:	cc                   	int3   
  201cd1:	cc                   	int3   
  201cd2:	cc                   	int3   
  201cd3:	cc                   	int3   
  201cd4:	cc                   	int3   
  201cd5:	cc                   	int3   
  201cd6:	cc                   	int3   
  201cd7:	cc                   	int3   
  201cd8:	cc                   	int3   
  201cd9:	cc                   	int3   
  201cda:	cc                   	int3   
  201cdb:	cc                   	int3   
  201cdc:	cc                   	int3   
  201cdd:	cc                   	int3   
  201cde:	cc                   	int3   
  201cdf:	cc                   	int3   
  201ce0:	cc                   	int3   
  201ce1:	cc                   	int3   
  201ce2:	cc                   	int3   
  201ce3:	cc                   	int3   
  201ce4:	cc                   	int3   
  201ce5:	cc                   	int3   
  201ce6:	cc                   	int3   
  201ce7:	cc                   	int3   
  201ce8:	cc                   	int3   
  201ce9:	cc                   	int3   
  201cea:	cc                   	int3   
  201ceb:	cc                   	int3   
  201cec:	cc                   	int3   
  201ced:	cc                   	int3   
  201cee:	cc                   	int3   
  201cef:	cc                   	int3   
  201cf0:	cc                   	int3   
  201cf1:	cc                   	int3   
  201cf2:	cc                   	int3   
  201cf3:	cc                   	int3   
  201cf4:	cc                   	int3   
  201cf5:	cc                   	int3   
  201cf6:	cc                   	int3   
  201cf7:	cc                   	int3   
  201cf8:	cc                   	int3   
  201cf9:	cc                   	int3   
  201cfa:	cc                   	int3   
  201cfb:	cc                   	int3   
  201cfc:	cc                   	int3   
  201cfd:	cc                   	int3   
  201cfe:	cc                   	int3   
  201cff:	cc                   	int3   
  201d00:	cc                   	int3   
  201d01:	cc                   	int3   
  201d02:	cc                   	int3   
  201d03:	cc                   	int3   
  201d04:	cc                   	int3   
  201d05:	cc                   	int3   
  201d06:	cc                   	int3   
  201d07:	cc                   	int3   
  201d08:	cc                   	int3   
  201d09:	cc                   	int3   
  201d0a:	cc                   	int3   
  201d0b:	cc                   	int3   
  201d0c:	cc                   	int3   
  201d0d:	cc                   	int3   
  201d0e:	cc                   	int3   
  201d0f:	cc                   	int3   
  201d10:	cc                   	int3   
  201d11:	cc                   	int3   
  201d12:	cc                   	int3   
  201d13:	cc                   	int3   
  201d14:	cc                   	int3   
  201d15:	cc                   	int3   
  201d16:	cc                   	int3   
  201d17:	cc                   	int3   
  201d18:	cc                   	int3   
  201d19:	cc                   	int3   
  201d1a:	cc                   	int3   
  201d1b:	cc                   	int3   
  201d1c:	cc                   	int3   
  201d1d:	cc                   	int3   
  201d1e:	cc                   	int3   
  201d1f:	cc                   	int3   
  201d20:	cc                   	int3   
  201d21:	cc                   	int3   
  201d22:	cc                   	int3   
  201d23:	cc                   	int3   
  201d24:	cc                   	int3   
  201d25:	cc                   	int3   
  201d26:	cc                   	int3   
  201d27:	cc                   	int3   
  201d28:	cc                   	int3   
  201d29:	cc                   	int3   
  201d2a:	cc                   	int3   
  201d2b:	cc                   	int3   
  201d2c:	cc                   	int3   
  201d2d:	cc                   	int3   
  201d2e:	cc                   	int3   
  201d2f:	cc                   	int3   
  201d30:	cc                   	int3   
  201d31:	cc                   	int3   
  201d32:	cc                   	int3   
  201d33:	cc                   	int3   
  201d34:	cc                   	int3   
  201d35:	cc                   	int3   
  201d36:	cc                   	int3   
  201d37:	cc                   	int3   
  201d38:	cc                   	int3   
  201d39:	cc                   	int3   
  201d3a:	cc                   	int3   
  201d3b:	cc                   	int3   
  201d3c:	cc                   	int3   
  201d3d:	cc                   	int3   
  201d3e:	cc                   	int3   
  201d3f:	cc                   	int3   
  201d40:	cc                   	int3   
  201d41:	cc                   	int3   
  201d42:	cc                   	int3   
  201d43:	cc                   	int3   
  201d44:	cc                   	int3   
  201d45:	cc                   	int3   
  201d46:	cc                   	int3   
  201d47:	cc                   	int3   
  201d48:	cc                   	int3   
  201d49:	cc                   	int3   
  201d4a:	cc                   	int3   
  201d4b:	cc                   	int3   
  201d4c:	cc                   	int3   
  201d4d:	cc                   	int3   
  201d4e:	cc                   	int3   
  201d4f:	cc                   	int3   
  201d50:	cc                   	int3   
  201d51:	cc                   	int3   
  201d52:	cc                   	int3   
  201d53:	cc                   	int3   
  201d54:	cc                   	int3   
  201d55:	cc                   	int3   
  201d56:	cc                   	int3   
  201d57:	cc                   	int3   
  201d58:	cc                   	int3   
  201d59:	cc                   	int3   
  201d5a:	cc                   	int3   
  201d5b:	cc                   	int3   
  201d5c:	cc                   	int3   
  201d5d:	cc                   	int3   
  201d5e:	cc                   	int3   
  201d5f:	cc                   	int3   
  201d60:	cc                   	int3   
  201d61:	cc                   	int3   
  201d62:	cc                   	int3   
  201d63:	cc                   	int3   
  201d64:	cc                   	int3   
  201d65:	cc                   	int3   
  201d66:	cc                   	int3   
  201d67:	cc                   	int3   
  201d68:	cc                   	int3   
  201d69:	cc                   	int3   
  201d6a:	cc                   	int3   
  201d6b:	cc                   	int3   
  201d6c:	cc                   	int3   
  201d6d:	cc                   	int3   
  201d6e:	cc                   	int3   
  201d6f:	cc                   	int3   
  201d70:	cc                   	int3   
  201d71:	cc                   	int3   
  201d72:	cc                   	int3   
  201d73:	cc                   	int3   
  201d74:	cc                   	int3   
  201d75:	cc                   	int3   
  201d76:	cc                   	int3   
  201d77:	cc                   	int3   
  201d78:	cc                   	int3   
  201d79:	cc                   	int3   
  201d7a:	cc                   	int3   
  201d7b:	cc                   	int3   
  201d7c:	cc                   	int3   
  201d7d:	cc                   	int3   
  201d7e:	cc                   	int3   
  201d7f:	cc                   	int3   
  201d80:	cc                   	int3   
  201d81:	cc                   	int3   
  201d82:	cc                   	int3   
  201d83:	cc                   	int3   
  201d84:	cc                   	int3   
  201d85:	cc                   	int3   
  201d86:	cc                   	int3   
  201d87:	cc                   	int3   
  201d88:	cc                   	int3   
  201d89:	cc                   	int3   
  201d8a:	cc                   	int3   
  201d8b:	cc                   	int3   
  201d8c:	cc                   	int3   
  201d8d:	cc                   	int3   
  201d8e:	cc                   	int3   
  201d8f:	cc                   	int3   
  201d90:	cc                   	int3   
  201d91:	cc                   	int3   
  201d92:	cc                   	int3   
  201d93:	cc                   	int3   
  201d94:	cc                   	int3   
  201d95:	cc                   	int3   
  201d96:	cc                   	int3   
  201d97:	cc                   	int3   
  201d98:	cc                   	int3   
  201d99:	cc                   	int3   
  201d9a:	cc                   	int3   
  201d9b:	cc                   	int3   
  201d9c:	cc                   	int3   
  201d9d:	cc                   	int3   
  201d9e:	cc                   	int3   
  201d9f:	cc                   	int3   
  201da0:	cc                   	int3   
  201da1:	cc                   	int3   
  201da2:	cc                   	int3   
  201da3:	cc                   	int3   
  201da4:	cc                   	int3   
  201da5:	cc                   	int3   
  201da6:	cc                   	int3   
  201da7:	cc                   	int3   
  201da8:	cc                   	int3   
  201da9:	cc                   	int3   
  201daa:	cc                   	int3   
  201dab:	cc                   	int3   
  201dac:	cc                   	int3   
  201dad:	cc                   	int3   
  201dae:	cc                   	int3   
  201daf:	cc                   	int3   
  201db0:	cc                   	int3   
  201db1:	cc                   	int3   
  201db2:	cc                   	int3   
  201db3:	cc                   	int3   
  201db4:	cc                   	int3   
  201db5:	cc                   	int3   
  201db6:	cc                   	int3   
  201db7:	cc                   	int3   
  201db8:	cc                   	int3   
  201db9:	cc                   	int3   
  201dba:	cc                   	int3   
  201dbb:	cc                   	int3   
  201dbc:	cc                   	int3   
  201dbd:	cc                   	int3   
  201dbe:	cc                   	int3   
  201dbf:	cc                   	int3   
  201dc0:	cc                   	int3   
  201dc1:	cc                   	int3   
  201dc2:	cc                   	int3   
  201dc3:	cc                   	int3   
  201dc4:	cc                   	int3   
  201dc5:	cc                   	int3   
  201dc6:	cc                   	int3   
  201dc7:	cc                   	int3   
  201dc8:	cc                   	int3   
  201dc9:	cc                   	int3   
  201dca:	cc                   	int3   
  201dcb:	cc                   	int3   
  201dcc:	cc                   	int3   
  201dcd:	cc                   	int3   
  201dce:	cc                   	int3   
  201dcf:	cc                   	int3   
  201dd0:	cc                   	int3   
  201dd1:	cc                   	int3   
  201dd2:	cc                   	int3   
  201dd3:	cc                   	int3   
  201dd4:	cc                   	int3   
  201dd5:	cc                   	int3   
  201dd6:	cc                   	int3   
  201dd7:	cc                   	int3   
  201dd8:	cc                   	int3   
  201dd9:	cc                   	int3   
  201dda:	cc                   	int3   
  201ddb:	cc                   	int3   
  201ddc:	cc                   	int3   
  201ddd:	cc                   	int3   
  201dde:	cc                   	int3   
  201ddf:	cc                   	int3   
  201de0:	cc                   	int3   
  201de1:	cc                   	int3   
  201de2:	cc                   	int3   
  201de3:	cc                   	int3   
  201de4:	cc                   	int3   
  201de5:	cc                   	int3   
  201de6:	cc                   	int3   
  201de7:	cc                   	int3   
  201de8:	cc                   	int3   
  201de9:	cc                   	int3   
  201dea:	cc                   	int3   
  201deb:	cc                   	int3   
  201dec:	cc                   	int3   
  201ded:	cc                   	int3   
  201dee:	cc                   	int3   
  201def:	cc                   	int3   
  201df0:	cc                   	int3   
  201df1:	cc                   	int3   
  201df2:	cc                   	int3   
  201df3:	cc                   	int3   
  201df4:	cc                   	int3   
  201df5:	cc                   	int3   
  201df6:	cc                   	int3   
  201df7:	cc                   	int3   
  201df8:	cc                   	int3   
  201df9:	cc                   	int3   
  201dfa:	cc                   	int3   
  201dfb:	cc                   	int3   
  201dfc:	cc                   	int3   
  201dfd:	cc                   	int3   
  201dfe:	cc                   	int3   
  201dff:	cc                   	int3   
  201e00:	cc                   	int3   
  201e01:	cc                   	int3   
  201e02:	cc                   	int3   
  201e03:	cc                   	int3   
  201e04:	cc                   	int3   
  201e05:	cc                   	int3   
  201e06:	cc                   	int3   
  201e07:	cc                   	int3   
  201e08:	cc                   	int3   
  201e09:	cc                   	int3   
  201e0a:	cc                   	int3   
  201e0b:	cc                   	int3   
  201e0c:	cc                   	int3   
  201e0d:	cc                   	int3   
  201e0e:	cc                   	int3   
  201e0f:	cc                   	int3   
  201e10:	cc                   	int3   
  201e11:	cc                   	int3   
  201e12:	cc                   	int3   
  201e13:	cc                   	int3   
  201e14:	cc                   	int3   
  201e15:	cc                   	int3   
  201e16:	cc                   	int3   
  201e17:	cc                   	int3   
  201e18:	cc                   	int3   
  201e19:	cc                   	int3   
  201e1a:	cc                   	int3   
  201e1b:	cc                   	int3   
  201e1c:	cc                   	int3   
  201e1d:	cc                   	int3   
  201e1e:	cc                   	int3   
  201e1f:	cc                   	int3   
  201e20:	cc                   	int3   
  201e21:	cc                   	int3   
  201e22:	cc                   	int3   
  201e23:	cc                   	int3   
  201e24:	cc                   	int3   
  201e25:	cc                   	int3   
  201e26:	cc                   	int3   
  201e27:	cc                   	int3   
  201e28:	cc                   	int3   
  201e29:	cc                   	int3   
  201e2a:	cc                   	int3   
  201e2b:	cc                   	int3   
  201e2c:	cc                   	int3   
  201e2d:	cc                   	int3   
  201e2e:	cc                   	int3   
  201e2f:	cc                   	int3   
  201e30:	cc                   	int3   
  201e31:	cc                   	int3   
  201e32:	cc                   	int3   
  201e33:	cc                   	int3   
  201e34:	cc                   	int3   
  201e35:	cc                   	int3   
  201e36:	cc                   	int3   
  201e37:	cc                   	int3   
  201e38:	cc                   	int3   
  201e39:	cc                   	int3   
  201e3a:	cc                   	int3   
  201e3b:	cc                   	int3   
  201e3c:	cc                   	int3   
  201e3d:	cc                   	int3   
  201e3e:	cc                   	int3   
  201e3f:	cc                   	int3   
  201e40:	cc                   	int3   
  201e41:	cc                   	int3   
  201e42:	cc                   	int3   
  201e43:	cc                   	int3   
  201e44:	cc                   	int3   
  201e45:	cc                   	int3   
  201e46:	cc                   	int3   
  201e47:	cc                   	int3   
  201e48:	cc                   	int3   
  201e49:	cc                   	int3   
  201e4a:	cc                   	int3   
  201e4b:	cc                   	int3   
  201e4c:	cc                   	int3   
  201e4d:	cc                   	int3   
  201e4e:	cc                   	int3   
  201e4f:	cc                   	int3   
  201e50:	cc                   	int3   
  201e51:	cc                   	int3   
  201e52:	cc                   	int3   
  201e53:	cc                   	int3   
  201e54:	cc                   	int3   
  201e55:	cc                   	int3   
  201e56:	cc                   	int3   
  201e57:	cc                   	int3   
  201e58:	cc                   	int3   
  201e59:	cc                   	int3   
  201e5a:	cc                   	int3   
  201e5b:	cc                   	int3   
  201e5c:	cc                   	int3   
  201e5d:	cc                   	int3   
  201e5e:	cc                   	int3   
  201e5f:	cc                   	int3   
  201e60:	cc                   	int3   
  201e61:	cc                   	int3   
  201e62:	cc                   	int3   
  201e63:	cc                   	int3   
  201e64:	cc                   	int3   
  201e65:	cc                   	int3   
  201e66:	cc                   	int3   
  201e67:	cc                   	int3   
  201e68:	cc                   	int3   
  201e69:	cc                   	int3   
  201e6a:	cc                   	int3   
  201e6b:	cc                   	int3   
  201e6c:	cc                   	int3   
  201e6d:	cc                   	int3   
  201e6e:	cc                   	int3   
  201e6f:	cc                   	int3   
  201e70:	cc                   	int3   
  201e71:	cc                   	int3   
  201e72:	cc                   	int3   
  201e73:	cc                   	int3   
  201e74:	cc                   	int3   
  201e75:	cc                   	int3   
  201e76:	cc                   	int3   
  201e77:	cc                   	int3   
  201e78:	cc                   	int3   
  201e79:	cc                   	int3   
  201e7a:	cc                   	int3   
  201e7b:	cc                   	int3   
  201e7c:	cc                   	int3   
  201e7d:	cc                   	int3   
  201e7e:	cc                   	int3   
  201e7f:	cc                   	int3   
  201e80:	cc                   	int3   
  201e81:	cc                   	int3   
  201e82:	cc                   	int3   
  201e83:	cc                   	int3   
  201e84:	cc                   	int3   
  201e85:	cc                   	int3   
  201e86:	cc                   	int3   
  201e87:	cc                   	int3   
  201e88:	cc                   	int3   
  201e89:	cc                   	int3   
  201e8a:	cc                   	int3   
  201e8b:	cc                   	int3   
  201e8c:	cc                   	int3   
  201e8d:	cc                   	int3   
  201e8e:	cc                   	int3   
  201e8f:	cc                   	int3   
  201e90:	cc                   	int3   
  201e91:	cc                   	int3   
  201e92:	cc                   	int3   
  201e93:	cc                   	int3   
  201e94:	cc                   	int3   
  201e95:	cc                   	int3   
  201e96:	cc                   	int3   
  201e97:	cc                   	int3   
  201e98:	cc                   	int3   
  201e99:	cc                   	int3   
  201e9a:	cc                   	int3   
  201e9b:	cc                   	int3   
  201e9c:	cc                   	int3   
  201e9d:	cc                   	int3   
  201e9e:	cc                   	int3   
  201e9f:	cc                   	int3   
  201ea0:	cc                   	int3   
  201ea1:	cc                   	int3   
  201ea2:	cc                   	int3   
  201ea3:	cc                   	int3   
  201ea4:	cc                   	int3   
  201ea5:	cc                   	int3   
  201ea6:	cc                   	int3   
  201ea7:	cc                   	int3   
  201ea8:	cc                   	int3   
  201ea9:	cc                   	int3   
  201eaa:	cc                   	int3   
  201eab:	cc                   	int3   
  201eac:	cc                   	int3   
  201ead:	cc                   	int3   
  201eae:	cc                   	int3   
  201eaf:	cc                   	int3   
  201eb0:	cc                   	int3   
  201eb1:	cc                   	int3   
  201eb2:	cc                   	int3   
  201eb3:	cc                   	int3   
  201eb4:	cc                   	int3   
  201eb5:	cc                   	int3   
  201eb6:	cc                   	int3   
  201eb7:	cc                   	int3   
  201eb8:	cc                   	int3   
  201eb9:	cc                   	int3   
  201eba:	cc                   	int3   
  201ebb:	cc                   	int3   
  201ebc:	cc                   	int3   
  201ebd:	cc                   	int3   
  201ebe:	cc                   	int3   
  201ebf:	cc                   	int3   
  201ec0:	cc                   	int3   
  201ec1:	cc                   	int3   
  201ec2:	cc                   	int3   
  201ec3:	cc                   	int3   
  201ec4:	cc                   	int3   
  201ec5:	cc                   	int3   
  201ec6:	cc                   	int3   
  201ec7:	cc                   	int3   
  201ec8:	cc                   	int3   
  201ec9:	cc                   	int3   
  201eca:	cc                   	int3   
  201ecb:	cc                   	int3   
  201ecc:	cc                   	int3   
  201ecd:	cc                   	int3   
  201ece:	cc                   	int3   
  201ecf:	cc                   	int3   
  201ed0:	cc                   	int3   
  201ed1:	cc                   	int3   
  201ed2:	cc                   	int3   
  201ed3:	cc                   	int3   
  201ed4:	cc                   	int3   
  201ed5:	cc                   	int3   
  201ed6:	cc                   	int3   
  201ed7:	cc                   	int3   
  201ed8:	cc                   	int3   
  201ed9:	cc                   	int3   
  201eda:	cc                   	int3   
  201edb:	cc                   	int3   
  201edc:	cc                   	int3   
  201edd:	cc                   	int3   
  201ede:	cc                   	int3   
  201edf:	cc                   	int3   
  201ee0:	cc                   	int3   
  201ee1:	cc                   	int3   
  201ee2:	cc                   	int3   
  201ee3:	cc                   	int3   
  201ee4:	cc                   	int3   
  201ee5:	cc                   	int3   
  201ee6:	cc                   	int3   
  201ee7:	cc                   	int3   
  201ee8:	cc                   	int3   
  201ee9:	cc                   	int3   
  201eea:	cc                   	int3   
  201eeb:	cc                   	int3   
  201eec:	cc                   	int3   
  201eed:	cc                   	int3   
  201eee:	cc                   	int3   
  201eef:	cc                   	int3   
  201ef0:	cc                   	int3   
  201ef1:	cc                   	int3   
  201ef2:	cc                   	int3   
  201ef3:	cc                   	int3   
  201ef4:	cc                   	int3   
  201ef5:	cc                   	int3   
  201ef6:	cc                   	int3   
  201ef7:	cc                   	int3   
  201ef8:	cc                   	int3   
  201ef9:	cc                   	int3   
  201efa:	cc                   	int3   
  201efb:	cc                   	int3   
  201efc:	cc                   	int3   
  201efd:	cc                   	int3   
  201efe:	cc                   	int3   
  201eff:	cc                   	int3   
  201f00:	cc                   	int3   
  201f01:	cc                   	int3   
  201f02:	cc                   	int3   
  201f03:	cc                   	int3   
  201f04:	cc                   	int3   
  201f05:	cc                   	int3   
  201f06:	cc                   	int3   
  201f07:	cc                   	int3   
  201f08:	cc                   	int3   
  201f09:	cc                   	int3   
  201f0a:	cc                   	int3   
  201f0b:	cc                   	int3   
  201f0c:	cc                   	int3   
  201f0d:	cc                   	int3   
  201f0e:	cc                   	int3   
  201f0f:	cc                   	int3   
  201f10:	cc                   	int3   
  201f11:	cc                   	int3   
  201f12:	cc                   	int3   
  201f13:	cc                   	int3   
  201f14:	cc                   	int3   
  201f15:	cc                   	int3   
  201f16:	cc                   	int3   
  201f17:	cc                   	int3   
  201f18:	cc                   	int3   
  201f19:	cc                   	int3   
  201f1a:	cc                   	int3   
  201f1b:	cc                   	int3   
  201f1c:	cc                   	int3   
  201f1d:	cc                   	int3   
  201f1e:	cc                   	int3   
  201f1f:	cc                   	int3   
  201f20:	cc                   	int3   
  201f21:	cc                   	int3   
  201f22:	cc                   	int3   
  201f23:	cc                   	int3   
  201f24:	cc                   	int3   
  201f25:	cc                   	int3   
  201f26:	cc                   	int3   
  201f27:	cc                   	int3   
  201f28:	cc                   	int3   
  201f29:	cc                   	int3   
  201f2a:	cc                   	int3   
  201f2b:	cc                   	int3   
  201f2c:	cc                   	int3   
  201f2d:	cc                   	int3   
  201f2e:	cc                   	int3   
  201f2f:	cc                   	int3   
  201f30:	cc                   	int3   
  201f31:	cc                   	int3   
  201f32:	cc                   	int3   
  201f33:	cc                   	int3   
  201f34:	cc                   	int3   
  201f35:	cc                   	int3   
  201f36:	cc                   	int3   
  201f37:	cc                   	int3   
  201f38:	cc                   	int3   
  201f39:	cc                   	int3   
  201f3a:	cc                   	int3   
  201f3b:	cc                   	int3   
  201f3c:	cc                   	int3   
  201f3d:	cc                   	int3   
  201f3e:	cc                   	int3   
  201f3f:	cc                   	int3   
  201f40:	cc                   	int3   
  201f41:	cc                   	int3   
  201f42:	cc                   	int3   
  201f43:	cc                   	int3   
  201f44:	cc                   	int3   
  201f45:	cc                   	int3   
  201f46:	cc                   	int3   
  201f47:	cc                   	int3   
  201f48:	cc                   	int3   
  201f49:	cc                   	int3   
  201f4a:	cc                   	int3   
  201f4b:	cc                   	int3   
  201f4c:	cc                   	int3   
  201f4d:	cc                   	int3   
  201f4e:	cc                   	int3   
  201f4f:	cc                   	int3   
  201f50:	cc                   	int3   
  201f51:	cc                   	int3   
  201f52:	cc                   	int3   
  201f53:	cc                   	int3   
  201f54:	cc                   	int3   
  201f55:	cc                   	int3   
  201f56:	cc                   	int3   
  201f57:	cc                   	int3   
  201f58:	cc                   	int3   
  201f59:	cc                   	int3   
  201f5a:	cc                   	int3   
  201f5b:	cc                   	int3   
  201f5c:	cc                   	int3   
  201f5d:	cc                   	int3   
  201f5e:	cc                   	int3   
  201f5f:	cc                   	int3   
  201f60:	cc                   	int3   
  201f61:	cc                   	int3   
  201f62:	cc                   	int3   
  201f63:	cc                   	int3   
  201f64:	cc                   	int3   
  201f65:	cc                   	int3   
  201f66:	cc                   	int3   
  201f67:	cc                   	int3   
  201f68:	cc                   	int3   
  201f69:	cc                   	int3   
  201f6a:	cc                   	int3   
  201f6b:	cc                   	int3   
  201f6c:	cc                   	int3   
  201f6d:	cc                   	int3   
  201f6e:	cc                   	int3   
  201f6f:	cc                   	int3   
  201f70:	cc                   	int3   
  201f71:	cc                   	int3   
  201f72:	cc                   	int3   
  201f73:	cc                   	int3   
  201f74:	cc                   	int3   
  201f75:	cc                   	int3   
  201f76:	cc                   	int3   
  201f77:	cc                   	int3   
  201f78:	cc                   	int3   
  201f79:	cc                   	int3   
  201f7a:	cc                   	int3   
  201f7b:	cc                   	int3   
  201f7c:	cc                   	int3   
  201f7d:	cc                   	int3   
  201f7e:	cc                   	int3   
  201f7f:	cc                   	int3   
  201f80:	cc                   	int3   
  201f81:	cc                   	int3   
  201f82:	cc                   	int3   
  201f83:	cc                   	int3   
  201f84:	cc                   	int3   
  201f85:	cc                   	int3   
  201f86:	cc                   	int3   
  201f87:	cc                   	int3   
  201f88:	cc                   	int3   
  201f89:	cc                   	int3   
  201f8a:	cc                   	int3   
  201f8b:	cc                   	int3   
  201f8c:	cc                   	int3   
  201f8d:	cc                   	int3   
  201f8e:	cc                   	int3   
  201f8f:	cc                   	int3   
  201f90:	cc                   	int3   
  201f91:	cc                   	int3   
  201f92:	cc                   	int3   
  201f93:	cc                   	int3   
  201f94:	cc                   	int3   
  201f95:	cc                   	int3   
  201f96:	cc                   	int3   
  201f97:	cc                   	int3   
  201f98:	cc                   	int3   
  201f99:	cc                   	int3   
  201f9a:	cc                   	int3   
  201f9b:	cc                   	int3   
  201f9c:	cc                   	int3   
  201f9d:	cc                   	int3   
  201f9e:	cc                   	int3   
  201f9f:	cc                   	int3   
  201fa0:	cc                   	int3   
  201fa1:	cc                   	int3   
  201fa2:	cc                   	int3   
  201fa3:	cc                   	int3   
  201fa4:	cc                   	int3   
  201fa5:	cc                   	int3   
  201fa6:	cc                   	int3   
  201fa7:	cc                   	int3   
  201fa8:	cc                   	int3   
  201fa9:	cc                   	int3   
  201faa:	cc                   	int3   
  201fab:	cc                   	int3   
  201fac:	cc                   	int3   
  201fad:	cc                   	int3   
  201fae:	cc                   	int3   
  201faf:	cc                   	int3   
  201fb0:	cc                   	int3   
  201fb1:	cc                   	int3   
  201fb2:	cc                   	int3   
  201fb3:	cc                   	int3   
  201fb4:	cc                   	int3   
  201fb5:	cc                   	int3   
  201fb6:	cc                   	int3   
  201fb7:	cc                   	int3   
  201fb8:	cc                   	int3   
  201fb9:	cc                   	int3   
  201fba:	cc                   	int3   
  201fbb:	cc                   	int3   
  201fbc:	cc                   	int3   
  201fbd:	cc                   	int3   
  201fbe:	cc                   	int3   
  201fbf:	cc                   	int3   
  201fc0:	cc                   	int3   
  201fc1:	cc                   	int3   
  201fc2:	cc                   	int3   
  201fc3:	cc                   	int3   
  201fc4:	cc                   	int3   
  201fc5:	cc                   	int3   
  201fc6:	cc                   	int3   
  201fc7:	cc                   	int3   
  201fc8:	cc                   	int3   
  201fc9:	cc                   	int3   
  201fca:	cc                   	int3   
  201fcb:	cc                   	int3   
  201fcc:	cc                   	int3   
  201fcd:	cc                   	int3   
  201fce:	cc                   	int3   
  201fcf:	cc                   	int3   
  201fd0:	cc                   	int3   
  201fd1:	cc                   	int3   
  201fd2:	cc                   	int3   
  201fd3:	cc                   	int3   
  201fd4:	cc                   	int3   
  201fd5:	cc                   	int3   
  201fd6:	cc                   	int3   
  201fd7:	cc                   	int3   
  201fd8:	cc                   	int3   
  201fd9:	cc                   	int3   
  201fda:	cc                   	int3   
  201fdb:	cc                   	int3   
  201fdc:	cc                   	int3   
  201fdd:	cc                   	int3   
  201fde:	cc                   	int3   
  201fdf:	cc                   	int3   
  201fe0:	cc                   	int3   
  201fe1:	cc                   	int3   
  201fe2:	cc                   	int3   
  201fe3:	cc                   	int3   
  201fe4:	cc                   	int3   
  201fe5:	cc                   	int3   
  201fe6:	cc                   	int3   
  201fe7:	cc                   	int3   
  201fe8:	cc                   	int3   
  201fe9:	cc                   	int3   
  201fea:	cc                   	int3   
  201feb:	cc                   	int3   
  201fec:	cc                   	int3   
  201fed:	cc                   	int3   
  201fee:	cc                   	int3   
  201fef:	cc                   	int3   
  201ff0:	cc                   	int3   
  201ff1:	cc                   	int3   
  201ff2:	cc                   	int3   
  201ff3:	cc                   	int3   
  201ff4:	cc                   	int3   
  201ff5:	cc                   	int3   
  201ff6:	cc                   	int3   
  201ff7:	cc                   	int3   
  201ff8:	cc                   	int3   
  201ff9:	cc                   	int3   
  201ffa:	cc                   	int3   
  201ffb:	cc                   	int3   
  201ffc:	cc                   	int3   
  201ffd:	cc                   	int3   
  201ffe:	cc                   	int3   
  201fff:	cc                   	int3   

0000000000202000 <springboard>:
  202000:	c3                   	retq   

0000000000202001 <atsgx.n2s.src>:
  202001:	49 89 c6             	mov    %rax,%r14

0000000000202004 <atsgx.n2s.src.body>:
  202004:	c7 f8 fa ff ff ff    	xbeginq 202004 <atsgx.n2s.src.body>
  20200a:	4c 89 f0             	mov    %r14,%rax
  20200d:	41 ff e7             	jmpq   *%r15

0000000000202010 <atsgx.n2s.none>:
  202010:	49 89 c6             	mov    %rax,%r14

0000000000202013 <atsgx.n2s.none.body>:
  202013:	c7 f8 fa ff ff ff    	xbeginq 202013 <atsgx.n2s.none.body>
  202019:	41 ff e7             	jmpq   *%r15

000000000020201c <atsgx.s2n.dest>:
  20201c:	0f 01 d5             	xend   
  20201f:	41 ff e7             	jmpq   *%r15

0000000000202022 <atsgx.s2n.none>:
  202022:	0f 01 d5             	xend   
  202025:	49 89 c6             	mov    %rax,%r14
  202028:	41 ff e7             	jmpq   *%r15

000000000020202b <atsgx.s2s.dest.src>:
  20202b:	0f 01 d5             	xend   
  20202e:	49 89 c6             	mov    %rax,%r14

0000000000202031 <atsgx.s2s.dest.src.body>:
  202031:	c7 f8 fa ff ff ff    	xbeginq 202031 <atsgx.s2s.dest.src.body>
  202037:	4c 89 f0             	mov    %r14,%rax
  20203a:	41 ff e7             	jmpq   *%r15

000000000020203d <atsgx.s2s.dest.none>:
  20203d:	0f 01 d5             	xend   
  202040:	49 89 c6             	mov    %rax,%r14

0000000000202043 <atsgx.s2s.dest.none.body>:
  202043:	c7 f8 fa ff ff ff    	xbeginq 202043 <atsgx.s2s.dest.none.body>
  202049:	41 ff e7             	jmpq   *%r15

000000000020204c <atsgx.s2s.none.src>:
  20204c:	0f 01 d5             	xend   

000000000020204f <atsgx.s2s.none.src.body>:
  20204f:	c7 f8 fa ff ff ff    	xbeginq 20204f <atsgx.s2s.none.src.body>
  202055:	4c 89 f0             	mov    %r14,%rax
  202058:	41 ff e7             	jmpq   *%r15

000000000020205b <atsgx.s2s.none.none>:
  20205b:	0f 01 d5             	xend   

000000000020205e <atsgx.s2s.none.none.body>:
  20205e:	c7 f8 fa ff ff ff    	xbeginq 20205e <atsgx.s2s.none.none.body>
  202064:	41 ff e7             	jmpq   *%r15

0000000000202067 <atsgx.ret>:
  202067:	0f 01 d5             	xend   
  20206a:	c3                   	retq   

000000000020206b <atsgx.call.s2e.none>:
  20206b:	0f 01 d5             	xend   
  20206e:	41 ff d7             	callq  *%r15

0000000000202071 <atsgx.call.s2e.none.ret>:
  202071:	c7 f8 fa ff ff ff    	xbeginq 202071 <atsgx.call.s2e.none.ret>
  202077:	c3                   	retq   

0000000000202078 <atsgx.call.s2e.rax>:
  202078:	0f 01 d5             	xend   
  20207b:	41 ff d7             	callq  *%r15
  20207e:	49 89 c6             	mov    %rax,%r14

0000000000202081 <atsgx.call.s2e.rax.ret>:
  202081:	c7 f8 fa ff ff ff    	xbeginq 202081 <atsgx.call.s2e.rax.ret>
  202087:	4c 89 f0             	mov    %r14,%rax
  20208a:	c3                   	retq   

000000000020208b <atsgx.call.s2s.rax>:
  20208b:	0f 01 d5             	xend   

000000000020208e <atsgx.call.s2s.rax.body>:
  20208e:	c7 f8 fa ff ff ff    	xbeginq 20208e <atsgx.call.s2s.rax.body>
  202094:	41 ff d7             	callq  *%r15
  202097:	49 89 c6             	mov    %rax,%r14

000000000020209a <atsgx.call.s2s.rax.ret>:
  20209a:	c7 f8 fa ff ff ff    	xbeginq 20209a <atsgx.call.s2s.rax.ret>
  2020a0:	4c 89 f0             	mov    %r14,%rax
  2020a3:	c3                   	retq   

00000000002020a4 <atsgx.call.s2s.none>:
  2020a4:	0f 01 d5             	xend   

00000000002020a7 <atsgx.call.s2s.none.body>:
  2020a7:	c7 f8 fa ff ff ff    	xbeginq 2020a7 <atsgx.call.s2s.none.body>
  2020ad:	41 ff d7             	callq  *%r15

00000000002020b0 <atsgx.call.s2s.none.ret>:
  2020b0:	c7 f8 fa ff ff ff    	xbeginq 2020b0 <atsgx.call.s2s.none.ret>
  2020b6:	c3                   	retq   

00000000002020b7 <atsgx.tailcall.s2e>:
  2020b7:	0f 01 d5             	xend   
  2020ba:	41 ff e7             	jmpq   *%r15

00000000002020bd <atsgx.tailcall.s2s>:
  2020bd:	0f 01 d5             	xend   

00000000002020c0 <atsgx.tailcall.s2s.body>:
  2020c0:	c7 f8 fa ff ff ff    	xbeginq 2020c0 <atsgx.tailcall.s2s.body>
  2020c6:	41 ff e7             	jmpq   *%r15
  2020c9:	90                   	nop
  2020ca:	90                   	nop
  2020cb:	90                   	nop
  2020cc:	90                   	nop
  2020cd:	90                   	nop
  2020ce:	90                   	nop
  2020cf:	90                   	nop
  2020d0:	90                   	nop
  2020d1:	90                   	nop
  2020d2:	90                   	nop
  2020d3:	90                   	nop
  2020d4:	90                   	nop
  2020d5:	90                   	nop
  2020d6:	90                   	nop
  2020d7:	90                   	nop
  2020d8:	90                   	nop
  2020d9:	90                   	nop
  2020da:	90                   	nop
  2020db:	90                   	nop
  2020dc:	90                   	nop
  2020dd:	90                   	nop
  2020de:	90                   	nop
  2020df:	90                   	nop
  2020e0:	90                   	nop
  2020e1:	90                   	nop
  2020e2:	90                   	nop
  2020e3:	90                   	nop
  2020e4:	90                   	nop
  2020e5:	90                   	nop
  2020e6:	90                   	nop
  2020e7:	90                   	nop
  2020e8:	90                   	nop
  2020e9:	90                   	nop
  2020ea:	90                   	nop
  2020eb:	90                   	nop
  2020ec:	90                   	nop
  2020ed:	90                   	nop
  2020ee:	90                   	nop
  2020ef:	90                   	nop
  2020f0:	90                   	nop
  2020f1:	90                   	nop
  2020f2:	90                   	nop
  2020f3:	90                   	nop
  2020f4:	90                   	nop
  2020f5:	90                   	nop
  2020f6:	90                   	nop
  2020f7:	90                   	nop
  2020f8:	90                   	nop
  2020f9:	90                   	nop
  2020fa:	90                   	nop
  2020fb:	90                   	nop
  2020fc:	90                   	nop
  2020fd:	90                   	nop
  2020fe:	90                   	nop
  2020ff:	90                   	nop
  202100:	90                   	nop
  202101:	90                   	nop
  202102:	90                   	nop
  202103:	90                   	nop
  202104:	90                   	nop
  202105:	90                   	nop
  202106:	90                   	nop
  202107:	90                   	nop
  202108:	90                   	nop
  202109:	90                   	nop
  20210a:	90                   	nop
  20210b:	90                   	nop
  20210c:	90                   	nop
  20210d:	90                   	nop
  20210e:	90                   	nop
  20210f:	90                   	nop
  202110:	90                   	nop
  202111:	90                   	nop
  202112:	90                   	nop
  202113:	90                   	nop
  202114:	90                   	nop
  202115:	90                   	nop
  202116:	90                   	nop
  202117:	90                   	nop
  202118:	90                   	nop
  202119:	90                   	nop
  20211a:	90                   	nop
  20211b:	90                   	nop
  20211c:	90                   	nop
  20211d:	90                   	nop
  20211e:	90                   	nop
  20211f:	90                   	nop
  202120:	90                   	nop
  202121:	90                   	nop
  202122:	90                   	nop
  202123:	90                   	nop
  202124:	90                   	nop
  202125:	90                   	nop
  202126:	90                   	nop
  202127:	90                   	nop
  202128:	90                   	nop
  202129:	90                   	nop
  20212a:	90                   	nop
  20212b:	90                   	nop
  20212c:	90                   	nop
  20212d:	90                   	nop
  20212e:	90                   	nop
  20212f:	90                   	nop
  202130:	90                   	nop
  202131:	90                   	nop
  202132:	90                   	nop
  202133:	90                   	nop
  202134:	90                   	nop
  202135:	90                   	nop
  202136:	90                   	nop
  202137:	90                   	nop
  202138:	90                   	nop
  202139:	90                   	nop
  20213a:	90                   	nop
  20213b:	90                   	nop
  20213c:	90                   	nop
  20213d:	90                   	nop
  20213e:	90                   	nop
  20213f:	90                   	nop
  202140:	90                   	nop
  202141:	90                   	nop
  202142:	90                   	nop
  202143:	90                   	nop
  202144:	90                   	nop
  202145:	90                   	nop
  202146:	90                   	nop
  202147:	90                   	nop
  202148:	90                   	nop
  202149:	90                   	nop
  20214a:	90                   	nop
  20214b:	90                   	nop
  20214c:	90                   	nop
  20214d:	90                   	nop
  20214e:	90                   	nop
  20214f:	90                   	nop
  202150:	90                   	nop
  202151:	90                   	nop
  202152:	90                   	nop
  202153:	90                   	nop
  202154:	90                   	nop
  202155:	90                   	nop
  202156:	90                   	nop
  202157:	90                   	nop
  202158:	90                   	nop
  202159:	90                   	nop
  20215a:	90                   	nop
  20215b:	90                   	nop
  20215c:	90                   	nop
  20215d:	90                   	nop
  20215e:	90                   	nop
  20215f:	90                   	nop
  202160:	90                   	nop
  202161:	90                   	nop
  202162:	90                   	nop
  202163:	90                   	nop
  202164:	90                   	nop
  202165:	90                   	nop
  202166:	90                   	nop
  202167:	90                   	nop
  202168:	90                   	nop
  202169:	90                   	nop
  20216a:	90                   	nop
  20216b:	90                   	nop
  20216c:	90                   	nop
  20216d:	90                   	nop
  20216e:	90                   	nop
  20216f:	90                   	nop
  202170:	90                   	nop
  202171:	90                   	nop
  202172:	90                   	nop
  202173:	90                   	nop
  202174:	90                   	nop
  202175:	90                   	nop
  202176:	90                   	nop
  202177:	90                   	nop
  202178:	90                   	nop
  202179:	90                   	nop
  20217a:	90                   	nop
  20217b:	90                   	nop
  20217c:	90                   	nop
  20217d:	90                   	nop
  20217e:	90                   	nop
  20217f:	90                   	nop
  202180:	90                   	nop
  202181:	90                   	nop
  202182:	90                   	nop
  202183:	90                   	nop
  202184:	90                   	nop
  202185:	90                   	nop
  202186:	90                   	nop
  202187:	90                   	nop
  202188:	90                   	nop
  202189:	90                   	nop
  20218a:	90                   	nop
  20218b:	90                   	nop
  20218c:	90                   	nop
  20218d:	90                   	nop
  20218e:	90                   	nop
  20218f:	90                   	nop
  202190:	90                   	nop
  202191:	90                   	nop
  202192:	90                   	nop
  202193:	90                   	nop
  202194:	90                   	nop
  202195:	90                   	nop
  202196:	90                   	nop
  202197:	90                   	nop
  202198:	90                   	nop
  202199:	90                   	nop
  20219a:	90                   	nop
  20219b:	90                   	nop
  20219c:	90                   	nop
  20219d:	90                   	nop
  20219e:	90                   	nop
  20219f:	90                   	nop
  2021a0:	90                   	nop
  2021a1:	90                   	nop
  2021a2:	90                   	nop
  2021a3:	90                   	nop
  2021a4:	90                   	nop
  2021a5:	90                   	nop
  2021a6:	90                   	nop
  2021a7:	90                   	nop
  2021a8:	90                   	nop
  2021a9:	90                   	nop
  2021aa:	90                   	nop
  2021ab:	90                   	nop
  2021ac:	90                   	nop
  2021ad:	90                   	nop
  2021ae:	90                   	nop
  2021af:	90                   	nop
  2021b0:	90                   	nop
  2021b1:	90                   	nop
  2021b2:	90                   	nop
  2021b3:	90                   	nop
  2021b4:	90                   	nop
  2021b5:	90                   	nop
  2021b6:	90                   	nop
  2021b7:	90                   	nop
  2021b8:	90                   	nop
  2021b9:	90                   	nop
  2021ba:	90                   	nop
  2021bb:	90                   	nop
  2021bc:	90                   	nop
  2021bd:	90                   	nop
  2021be:	90                   	nop
  2021bf:	90                   	nop
  2021c0:	90                   	nop
  2021c1:	90                   	nop
  2021c2:	90                   	nop
  2021c3:	90                   	nop
  2021c4:	90                   	nop
  2021c5:	90                   	nop
  2021c6:	90                   	nop
  2021c7:	90                   	nop
  2021c8:	90                   	nop
  2021c9:	90                   	nop
  2021ca:	90                   	nop
  2021cb:	90                   	nop
  2021cc:	90                   	nop
  2021cd:	90                   	nop
  2021ce:	90                   	nop
  2021cf:	90                   	nop
  2021d0:	90                   	nop
  2021d1:	90                   	nop
  2021d2:	90                   	nop
  2021d3:	90                   	nop
  2021d4:	90                   	nop
  2021d5:	90                   	nop
  2021d6:	90                   	nop
  2021d7:	90                   	nop
  2021d8:	90                   	nop
  2021d9:	90                   	nop
  2021da:	90                   	nop
  2021db:	90                   	nop
  2021dc:	90                   	nop
  2021dd:	90                   	nop
  2021de:	90                   	nop
  2021df:	90                   	nop
  2021e0:	90                   	nop
  2021e1:	90                   	nop
  2021e2:	90                   	nop
  2021e3:	90                   	nop
  2021e4:	90                   	nop
  2021e5:	90                   	nop
  2021e6:	90                   	nop
  2021e7:	90                   	nop
  2021e8:	90                   	nop
  2021e9:	90                   	nop
  2021ea:	90                   	nop
  2021eb:	90                   	nop
  2021ec:	90                   	nop
  2021ed:	90                   	nop
  2021ee:	90                   	nop
  2021ef:	90                   	nop
  2021f0:	90                   	nop
  2021f1:	90                   	nop
  2021f2:	90                   	nop
  2021f3:	90                   	nop
  2021f4:	90                   	nop
  2021f5:	90                   	nop
  2021f6:	90                   	nop
  2021f7:	90                   	nop
  2021f8:	90                   	nop
  2021f9:	90                   	nop
  2021fa:	90                   	nop
  2021fb:	90                   	nop
  2021fc:	90                   	nop
  2021fd:	90                   	nop
  2021fe:	90                   	nop
  2021ff:	90                   	nop
  202200:	90                   	nop
  202201:	90                   	nop
  202202:	90                   	nop
  202203:	90                   	nop
  202204:	90                   	nop
  202205:	90                   	nop
  202206:	90                   	nop
  202207:	90                   	nop
  202208:	90                   	nop
  202209:	90                   	nop
  20220a:	90                   	nop
  20220b:	90                   	nop
  20220c:	90                   	nop
  20220d:	90                   	nop
  20220e:	90                   	nop
  20220f:	90                   	nop
  202210:	90                   	nop
  202211:	90                   	nop
  202212:	90                   	nop
  202213:	90                   	nop
  202214:	90                   	nop
  202215:	90                   	nop
  202216:	90                   	nop
  202217:	90                   	nop
  202218:	90                   	nop
  202219:	90                   	nop
  20221a:	90                   	nop
  20221b:	90                   	nop
  20221c:	90                   	nop
  20221d:	90                   	nop
  20221e:	90                   	nop
  20221f:	90                   	nop
  202220:	90                   	nop
  202221:	90                   	nop
  202222:	90                   	nop
  202223:	90                   	nop
  202224:	90                   	nop
  202225:	90                   	nop
  202226:	90                   	nop
  202227:	90                   	nop
  202228:	90                   	nop
  202229:	90                   	nop
  20222a:	90                   	nop
  20222b:	90                   	nop
  20222c:	90                   	nop
  20222d:	90                   	nop
  20222e:	90                   	nop
  20222f:	90                   	nop
  202230:	90                   	nop
  202231:	90                   	nop
  202232:	90                   	nop
  202233:	90                   	nop
  202234:	90                   	nop
  202235:	90                   	nop
  202236:	90                   	nop
  202237:	90                   	nop
  202238:	90                   	nop
  202239:	90                   	nop
  20223a:	90                   	nop
  20223b:	90                   	nop
  20223c:	90                   	nop
  20223d:	90                   	nop
  20223e:	90                   	nop
  20223f:	90                   	nop
  202240:	90                   	nop
  202241:	90                   	nop
  202242:	90                   	nop
  202243:	90                   	nop
  202244:	90                   	nop
  202245:	90                   	nop
  202246:	90                   	nop
  202247:	90                   	nop
  202248:	90                   	nop
  202249:	90                   	nop
  20224a:	90                   	nop
  20224b:	90                   	nop
  20224c:	90                   	nop
  20224d:	90                   	nop
  20224e:	90                   	nop
  20224f:	90                   	nop
  202250:	90                   	nop
  202251:	90                   	nop
  202252:	90                   	nop
  202253:	90                   	nop
  202254:	90                   	nop
  202255:	90                   	nop
  202256:	90                   	nop
  202257:	90                   	nop
  202258:	90                   	nop
  202259:	90                   	nop
  20225a:	90                   	nop
  20225b:	90                   	nop
  20225c:	90                   	nop
  20225d:	90                   	nop
  20225e:	90                   	nop
  20225f:	90                   	nop
  202260:	90                   	nop
  202261:	90                   	nop
  202262:	90                   	nop
  202263:	90                   	nop
  202264:	90                   	nop
  202265:	90                   	nop
  202266:	90                   	nop
  202267:	90                   	nop
  202268:	90                   	nop
  202269:	90                   	nop
  20226a:	90                   	nop
  20226b:	90                   	nop
  20226c:	90                   	nop
  20226d:	90                   	nop
  20226e:	90                   	nop
  20226f:	90                   	nop
  202270:	90                   	nop
  202271:	90                   	nop
  202272:	90                   	nop
  202273:	90                   	nop
  202274:	90                   	nop
  202275:	90                   	nop
  202276:	90                   	nop
  202277:	90                   	nop
  202278:	90                   	nop
  202279:	90                   	nop
  20227a:	90                   	nop
  20227b:	90                   	nop
  20227c:	90                   	nop
  20227d:	90                   	nop
  20227e:	90                   	nop
  20227f:	90                   	nop
  202280:	90                   	nop
  202281:	90                   	nop
  202282:	90                   	nop
  202283:	90                   	nop
  202284:	90                   	nop
  202285:	90                   	nop
  202286:	90                   	nop
  202287:	90                   	nop
  202288:	90                   	nop
  202289:	90                   	nop
  20228a:	90                   	nop
  20228b:	90                   	nop
  20228c:	90                   	nop
  20228d:	90                   	nop
  20228e:	90                   	nop
  20228f:	90                   	nop
  202290:	90                   	nop
  202291:	90                   	nop
  202292:	90                   	nop
  202293:	90                   	nop
  202294:	90                   	nop
  202295:	90                   	nop
  202296:	90                   	nop
  202297:	90                   	nop
  202298:	90                   	nop
  202299:	90                   	nop
  20229a:	90                   	nop
  20229b:	90                   	nop
  20229c:	90                   	nop
  20229d:	90                   	nop
  20229e:	90                   	nop
  20229f:	90                   	nop
  2022a0:	90                   	nop
  2022a1:	90                   	nop
  2022a2:	90                   	nop
  2022a3:	90                   	nop
  2022a4:	90                   	nop
  2022a5:	90                   	nop
  2022a6:	90                   	nop
  2022a7:	90                   	nop
  2022a8:	90                   	nop
  2022a9:	90                   	nop
  2022aa:	90                   	nop
  2022ab:	90                   	nop
  2022ac:	90                   	nop
  2022ad:	90                   	nop
  2022ae:	90                   	nop
  2022af:	90                   	nop
  2022b0:	90                   	nop
  2022b1:	90                   	nop
  2022b2:	90                   	nop
  2022b3:	90                   	nop
  2022b4:	90                   	nop
  2022b5:	90                   	nop
  2022b6:	90                   	nop
  2022b7:	90                   	nop
  2022b8:	90                   	nop
  2022b9:	90                   	nop
  2022ba:	90                   	nop
  2022bb:	90                   	nop
  2022bc:	90                   	nop
  2022bd:	90                   	nop
  2022be:	90                   	nop
  2022bf:	90                   	nop
  2022c0:	90                   	nop
  2022c1:	90                   	nop
  2022c2:	90                   	nop
  2022c3:	90                   	nop
  2022c4:	90                   	nop
  2022c5:	90                   	nop
  2022c6:	90                   	nop
  2022c7:	90                   	nop
  2022c8:	90                   	nop
  2022c9:	90                   	nop
  2022ca:	90                   	nop
  2022cb:	90                   	nop
  2022cc:	90                   	nop
  2022cd:	90                   	nop
  2022ce:	90                   	nop
  2022cf:	90                   	nop
  2022d0:	90                   	nop
  2022d1:	90                   	nop
  2022d2:	90                   	nop
  2022d3:	90                   	nop
  2022d4:	90                   	nop
  2022d5:	90                   	nop
  2022d6:	90                   	nop
  2022d7:	90                   	nop
  2022d8:	90                   	nop
  2022d9:	90                   	nop
  2022da:	90                   	nop
  2022db:	90                   	nop
  2022dc:	90                   	nop
  2022dd:	90                   	nop
  2022de:	90                   	nop
  2022df:	90                   	nop
  2022e0:	90                   	nop
  2022e1:	90                   	nop
  2022e2:	90                   	nop
  2022e3:	90                   	nop
  2022e4:	90                   	nop
  2022e5:	90                   	nop
  2022e6:	90                   	nop
  2022e7:	90                   	nop
  2022e8:	90                   	nop
  2022e9:	90                   	nop
  2022ea:	90                   	nop
  2022eb:	90                   	nop
  2022ec:	90                   	nop
  2022ed:	90                   	nop
  2022ee:	90                   	nop
  2022ef:	90                   	nop
  2022f0:	90                   	nop
  2022f1:	90                   	nop
  2022f2:	90                   	nop
  2022f3:	90                   	nop
  2022f4:	90                   	nop
  2022f5:	90                   	nop
  2022f6:	90                   	nop
  2022f7:	90                   	nop
  2022f8:	90                   	nop
  2022f9:	90                   	nop
  2022fa:	90                   	nop
  2022fb:	90                   	nop
  2022fc:	90                   	nop
  2022fd:	90                   	nop
  2022fe:	90                   	nop
  2022ff:	90                   	nop
  202300:	90                   	nop
  202301:	90                   	nop
  202302:	90                   	nop
  202303:	90                   	nop
  202304:	90                   	nop
  202305:	90                   	nop
  202306:	90                   	nop
  202307:	90                   	nop
  202308:	90                   	nop
  202309:	90                   	nop
  20230a:	90                   	nop
  20230b:	90                   	nop
  20230c:	90                   	nop
  20230d:	90                   	nop
  20230e:	90                   	nop
  20230f:	90                   	nop
  202310:	90                   	nop
  202311:	90                   	nop
  202312:	90                   	nop
  202313:	90                   	nop
  202314:	90                   	nop
  202315:	90                   	nop
  202316:	90                   	nop
  202317:	90                   	nop
  202318:	90                   	nop
  202319:	90                   	nop
  20231a:	90                   	nop
  20231b:	90                   	nop
  20231c:	90                   	nop
  20231d:	90                   	nop
  20231e:	90                   	nop
  20231f:	90                   	nop
  202320:	90                   	nop
  202321:	90                   	nop
  202322:	90                   	nop
  202323:	90                   	nop
  202324:	90                   	nop
  202325:	90                   	nop
  202326:	90                   	nop
  202327:	90                   	nop
  202328:	90                   	nop
  202329:	90                   	nop
  20232a:	90                   	nop
  20232b:	90                   	nop
  20232c:	90                   	nop
  20232d:	90                   	nop
  20232e:	90                   	nop
  20232f:	90                   	nop
  202330:	90                   	nop
  202331:	90                   	nop
  202332:	90                   	nop
  202333:	90                   	nop
  202334:	90                   	nop
  202335:	90                   	nop
  202336:	90                   	nop
  202337:	90                   	nop
  202338:	90                   	nop
  202339:	90                   	nop
  20233a:	90                   	nop
  20233b:	90                   	nop
  20233c:	90                   	nop
  20233d:	90                   	nop
  20233e:	90                   	nop
  20233f:	90                   	nop
  202340:	90                   	nop
  202341:	90                   	nop
  202342:	90                   	nop
  202343:	90                   	nop
  202344:	90                   	nop
  202345:	90                   	nop
  202346:	90                   	nop
  202347:	90                   	nop
  202348:	90                   	nop
  202349:	90                   	nop
  20234a:	90                   	nop
  20234b:	90                   	nop
  20234c:	90                   	nop
  20234d:	90                   	nop
  20234e:	90                   	nop
  20234f:	90                   	nop
  202350:	90                   	nop
  202351:	90                   	nop
  202352:	90                   	nop
  202353:	90                   	nop
  202354:	90                   	nop
  202355:	90                   	nop
  202356:	90                   	nop
  202357:	90                   	nop
  202358:	90                   	nop
  202359:	90                   	nop
  20235a:	90                   	nop
  20235b:	90                   	nop
  20235c:	90                   	nop
  20235d:	90                   	nop
  20235e:	90                   	nop
  20235f:	90                   	nop
  202360:	90                   	nop
  202361:	90                   	nop
  202362:	90                   	nop
  202363:	90                   	nop
  202364:	90                   	nop
  202365:	90                   	nop
  202366:	90                   	nop
  202367:	90                   	nop
  202368:	90                   	nop
  202369:	90                   	nop
  20236a:	90                   	nop
  20236b:	90                   	nop
  20236c:	90                   	nop
  20236d:	90                   	nop
  20236e:	90                   	nop
  20236f:	90                   	nop
  202370:	90                   	nop
  202371:	90                   	nop
  202372:	90                   	nop
  202373:	90                   	nop
  202374:	90                   	nop
  202375:	90                   	nop
  202376:	90                   	nop
  202377:	90                   	nop
  202378:	90                   	nop
  202379:	90                   	nop
  20237a:	90                   	nop
  20237b:	90                   	nop
  20237c:	90                   	nop
  20237d:	90                   	nop
  20237e:	90                   	nop
  20237f:	90                   	nop
  202380:	90                   	nop
  202381:	90                   	nop
  202382:	90                   	nop
  202383:	90                   	nop
  202384:	90                   	nop
  202385:	90                   	nop
  202386:	90                   	nop
  202387:	90                   	nop
  202388:	90                   	nop
  202389:	90                   	nop
  20238a:	90                   	nop
  20238b:	90                   	nop
  20238c:	90                   	nop
  20238d:	90                   	nop
  20238e:	90                   	nop
  20238f:	90                   	nop
  202390:	90                   	nop
  202391:	90                   	nop
  202392:	90                   	nop
  202393:	90                   	nop
  202394:	90                   	nop
  202395:	90                   	nop
  202396:	90                   	nop
  202397:	90                   	nop
  202398:	90                   	nop
  202399:	90                   	nop
  20239a:	90                   	nop
  20239b:	90                   	nop
  20239c:	90                   	nop
  20239d:	90                   	nop
  20239e:	90                   	nop
  20239f:	90                   	nop
  2023a0:	90                   	nop
  2023a1:	90                   	nop
  2023a2:	90                   	nop
  2023a3:	90                   	nop
  2023a4:	90                   	nop
  2023a5:	90                   	nop
  2023a6:	90                   	nop
  2023a7:	90                   	nop
  2023a8:	90                   	nop
  2023a9:	90                   	nop
  2023aa:	90                   	nop
  2023ab:	90                   	nop
  2023ac:	90                   	nop
  2023ad:	90                   	nop
  2023ae:	90                   	nop
  2023af:	90                   	nop
  2023b0:	90                   	nop
  2023b1:	90                   	nop
  2023b2:	90                   	nop
  2023b3:	90                   	nop
  2023b4:	90                   	nop
  2023b5:	90                   	nop
  2023b6:	90                   	nop
  2023b7:	90                   	nop
  2023b8:	90                   	nop
  2023b9:	90                   	nop
  2023ba:	90                   	nop
  2023bb:	90                   	nop
  2023bc:	90                   	nop
  2023bd:	90                   	nop
  2023be:	90                   	nop
  2023bf:	90                   	nop
  2023c0:	90                   	nop
  2023c1:	90                   	nop
  2023c2:	90                   	nop
  2023c3:	90                   	nop
  2023c4:	90                   	nop
  2023c5:	90                   	nop
  2023c6:	90                   	nop
  2023c7:	90                   	nop
  2023c8:	90                   	nop
  2023c9:	90                   	nop
  2023ca:	90                   	nop
  2023cb:	90                   	nop
  2023cc:	90                   	nop
  2023cd:	90                   	nop
  2023ce:	90                   	nop
  2023cf:	90                   	nop
  2023d0:	90                   	nop
  2023d1:	90                   	nop
  2023d2:	90                   	nop
  2023d3:	90                   	nop
  2023d4:	90                   	nop
  2023d5:	90                   	nop
  2023d6:	90                   	nop
  2023d7:	90                   	nop
  2023d8:	90                   	nop
  2023d9:	90                   	nop
  2023da:	90                   	nop
  2023db:	90                   	nop
  2023dc:	90                   	nop
  2023dd:	90                   	nop
  2023de:	90                   	nop
  2023df:	90                   	nop
  2023e0:	90                   	nop
  2023e1:	90                   	nop
  2023e2:	90                   	nop
  2023e3:	90                   	nop
  2023e4:	90                   	nop
  2023e5:	90                   	nop
  2023e6:	90                   	nop
  2023e7:	90                   	nop
  2023e8:	90                   	nop
  2023e9:	90                   	nop
  2023ea:	90                   	nop
  2023eb:	90                   	nop
  2023ec:	90                   	nop
  2023ed:	90                   	nop
  2023ee:	90                   	nop
  2023ef:	90                   	nop
  2023f0:	90                   	nop
  2023f1:	90                   	nop
  2023f2:	90                   	nop
  2023f3:	90                   	nop
  2023f4:	90                   	nop
  2023f5:	90                   	nop
  2023f6:	90                   	nop
  2023f7:	90                   	nop
  2023f8:	90                   	nop
  2023f9:	90                   	nop
  2023fa:	90                   	nop
  2023fb:	90                   	nop
  2023fc:	90                   	nop
  2023fd:	90                   	nop
  2023fe:	90                   	nop
  2023ff:	90                   	nop
  202400:	90                   	nop
  202401:	90                   	nop
  202402:	90                   	nop
  202403:	90                   	nop
  202404:	90                   	nop
  202405:	90                   	nop
  202406:	90                   	nop
  202407:	90                   	nop
  202408:	90                   	nop
  202409:	90                   	nop
  20240a:	90                   	nop
  20240b:	90                   	nop
  20240c:	90                   	nop
  20240d:	90                   	nop
  20240e:	90                   	nop
  20240f:	90                   	nop
  202410:	90                   	nop
  202411:	90                   	nop
  202412:	90                   	nop
  202413:	90                   	nop
  202414:	90                   	nop
  202415:	90                   	nop
  202416:	90                   	nop
  202417:	90                   	nop
  202418:	90                   	nop
  202419:	90                   	nop
  20241a:	90                   	nop
  20241b:	90                   	nop
  20241c:	90                   	nop
  20241d:	90                   	nop
  20241e:	90                   	nop
  20241f:	90                   	nop
  202420:	90                   	nop
  202421:	90                   	nop
  202422:	90                   	nop
  202423:	90                   	nop
  202424:	90                   	nop
  202425:	90                   	nop
  202426:	90                   	nop
  202427:	90                   	nop
  202428:	90                   	nop
  202429:	90                   	nop
  20242a:	90                   	nop
  20242b:	90                   	nop
  20242c:	90                   	nop
  20242d:	90                   	nop
  20242e:	90                   	nop
  20242f:	90                   	nop
  202430:	90                   	nop
  202431:	90                   	nop
  202432:	90                   	nop
  202433:	90                   	nop
  202434:	90                   	nop
  202435:	90                   	nop
  202436:	90                   	nop
  202437:	90                   	nop
  202438:	90                   	nop
  202439:	90                   	nop
  20243a:	90                   	nop
  20243b:	90                   	nop
  20243c:	90                   	nop
  20243d:	90                   	nop
  20243e:	90                   	nop
  20243f:	90                   	nop
  202440:	90                   	nop
  202441:	90                   	nop
  202442:	90                   	nop
  202443:	90                   	nop
  202444:	90                   	nop
  202445:	90                   	nop
  202446:	90                   	nop
  202447:	90                   	nop
  202448:	90                   	nop
  202449:	90                   	nop
  20244a:	90                   	nop
  20244b:	90                   	nop
  20244c:	90                   	nop
  20244d:	90                   	nop
  20244e:	90                   	nop
  20244f:	90                   	nop
  202450:	90                   	nop
  202451:	90                   	nop
  202452:	90                   	nop
  202453:	90                   	nop
  202454:	90                   	nop
  202455:	90                   	nop
  202456:	90                   	nop
  202457:	90                   	nop
  202458:	90                   	nop
  202459:	90                   	nop
  20245a:	90                   	nop
  20245b:	90                   	nop
  20245c:	90                   	nop
  20245d:	90                   	nop
  20245e:	90                   	nop
  20245f:	90                   	nop
  202460:	90                   	nop
  202461:	90                   	nop
  202462:	90                   	nop
  202463:	90                   	nop
  202464:	90                   	nop
  202465:	90                   	nop
  202466:	90                   	nop
  202467:	90                   	nop
  202468:	90                   	nop
  202469:	90                   	nop
  20246a:	90                   	nop
  20246b:	90                   	nop
  20246c:	90                   	nop
  20246d:	90                   	nop
  20246e:	90                   	nop
  20246f:	90                   	nop
  202470:	90                   	nop
  202471:	90                   	nop
  202472:	90                   	nop
  202473:	90                   	nop
  202474:	90                   	nop
  202475:	90                   	nop
  202476:	90                   	nop
  202477:	90                   	nop
  202478:	90                   	nop
  202479:	90                   	nop
  20247a:	90                   	nop
  20247b:	90                   	nop
  20247c:	90                   	nop
  20247d:	90                   	nop
  20247e:	90                   	nop
  20247f:	90                   	nop
  202480:	90                   	nop
  202481:	90                   	nop
  202482:	90                   	nop
  202483:	90                   	nop
  202484:	90                   	nop
  202485:	90                   	nop
  202486:	90                   	nop
  202487:	90                   	nop
  202488:	90                   	nop
  202489:	90                   	nop
  20248a:	90                   	nop
  20248b:	90                   	nop
  20248c:	90                   	nop
  20248d:	90                   	nop
  20248e:	90                   	nop
  20248f:	90                   	nop
  202490:	90                   	nop
  202491:	90                   	nop
  202492:	90                   	nop
  202493:	90                   	nop
  202494:	90                   	nop
  202495:	90                   	nop
  202496:	90                   	nop
  202497:	90                   	nop
  202498:	90                   	nop
  202499:	90                   	nop
  20249a:	90                   	nop
  20249b:	90                   	nop
  20249c:	90                   	nop
  20249d:	90                   	nop
  20249e:	90                   	nop
  20249f:	90                   	nop
  2024a0:	90                   	nop
  2024a1:	90                   	nop
  2024a2:	90                   	nop
  2024a3:	90                   	nop
  2024a4:	90                   	nop
  2024a5:	90                   	nop
  2024a6:	90                   	nop
  2024a7:	90                   	nop
  2024a8:	90                   	nop
  2024a9:	90                   	nop
  2024aa:	90                   	nop
  2024ab:	90                   	nop
  2024ac:	90                   	nop
  2024ad:	90                   	nop
  2024ae:	90                   	nop
  2024af:	90                   	nop
  2024b0:	90                   	nop
  2024b1:	90                   	nop
  2024b2:	90                   	nop
  2024b3:	90                   	nop
  2024b4:	90                   	nop
  2024b5:	90                   	nop
  2024b6:	90                   	nop
  2024b7:	90                   	nop
  2024b8:	90                   	nop
  2024b9:	90                   	nop
  2024ba:	90                   	nop
  2024bb:	90                   	nop
  2024bc:	90                   	nop
  2024bd:	90                   	nop
  2024be:	90                   	nop
  2024bf:	90                   	nop
  2024c0:	90                   	nop
  2024c1:	90                   	nop
  2024c2:	90                   	nop
  2024c3:	90                   	nop
  2024c4:	90                   	nop
  2024c5:	90                   	nop
  2024c6:	90                   	nop
  2024c7:	90                   	nop
  2024c8:	90                   	nop
  2024c9:	90                   	nop
  2024ca:	90                   	nop
  2024cb:	90                   	nop
  2024cc:	90                   	nop
  2024cd:	90                   	nop
  2024ce:	90                   	nop
  2024cf:	90                   	nop
  2024d0:	90                   	nop
  2024d1:	90                   	nop
  2024d2:	90                   	nop
  2024d3:	90                   	nop
  2024d4:	90                   	nop
  2024d5:	90                   	nop
  2024d6:	90                   	nop
  2024d7:	90                   	nop
  2024d8:	90                   	nop
  2024d9:	90                   	nop
  2024da:	90                   	nop
  2024db:	90                   	nop
  2024dc:	90                   	nop
  2024dd:	90                   	nop
  2024de:	90                   	nop
  2024df:	90                   	nop
  2024e0:	90                   	nop
  2024e1:	90                   	nop
  2024e2:	90                   	nop
  2024e3:	90                   	nop
  2024e4:	90                   	nop
  2024e5:	90                   	nop
  2024e6:	90                   	nop
  2024e7:	90                   	nop
  2024e8:	90                   	nop
  2024e9:	90                   	nop
  2024ea:	90                   	nop
  2024eb:	90                   	nop
  2024ec:	90                   	nop
  2024ed:	90                   	nop
  2024ee:	90                   	nop
  2024ef:	90                   	nop
  2024f0:	90                   	nop
  2024f1:	90                   	nop
  2024f2:	90                   	nop
  2024f3:	90                   	nop
  2024f4:	90                   	nop
  2024f5:	90                   	nop
  2024f6:	90                   	nop
  2024f7:	90                   	nop
  2024f8:	90                   	nop
  2024f9:	90                   	nop
  2024fa:	90                   	nop
  2024fb:	90                   	nop
  2024fc:	90                   	nop
  2024fd:	90                   	nop
  2024fe:	90                   	nop
  2024ff:	90                   	nop
  202500:	90                   	nop
  202501:	90                   	nop
  202502:	90                   	nop
  202503:	90                   	nop
  202504:	90                   	nop
  202505:	90                   	nop
  202506:	90                   	nop
  202507:	90                   	nop
  202508:	90                   	nop
  202509:	90                   	nop
  20250a:	90                   	nop
  20250b:	90                   	nop
  20250c:	90                   	nop
  20250d:	90                   	nop
  20250e:	90                   	nop
  20250f:	90                   	nop
  202510:	90                   	nop
  202511:	90                   	nop
  202512:	90                   	nop
  202513:	90                   	nop
  202514:	90                   	nop
  202515:	90                   	nop
  202516:	90                   	nop
  202517:	90                   	nop
  202518:	90                   	nop
  202519:	90                   	nop
  20251a:	90                   	nop
  20251b:	90                   	nop
  20251c:	90                   	nop
  20251d:	90                   	nop
  20251e:	90                   	nop
  20251f:	90                   	nop
  202520:	90                   	nop
  202521:	90                   	nop
  202522:	90                   	nop
  202523:	90                   	nop
  202524:	90                   	nop
  202525:	90                   	nop
  202526:	90                   	nop
  202527:	90                   	nop
  202528:	90                   	nop
  202529:	90                   	nop
  20252a:	90                   	nop
  20252b:	90                   	nop
  20252c:	90                   	nop
  20252d:	90                   	nop
  20252e:	90                   	nop
  20252f:	90                   	nop
  202530:	90                   	nop
  202531:	90                   	nop
  202532:	90                   	nop
  202533:	90                   	nop
  202534:	90                   	nop
  202535:	90                   	nop
  202536:	90                   	nop
  202537:	90                   	nop
  202538:	90                   	nop
  202539:	90                   	nop
  20253a:	90                   	nop
  20253b:	90                   	nop
  20253c:	90                   	nop
  20253d:	90                   	nop
  20253e:	90                   	nop
  20253f:	90                   	nop
  202540:	90                   	nop
  202541:	90                   	nop
  202542:	90                   	nop
  202543:	90                   	nop
  202544:	90                   	nop
  202545:	90                   	nop
  202546:	90                   	nop
  202547:	90                   	nop
  202548:	90                   	nop
  202549:	90                   	nop
  20254a:	90                   	nop
  20254b:	90                   	nop
  20254c:	90                   	nop
  20254d:	90                   	nop
  20254e:	90                   	nop
  20254f:	90                   	nop
  202550:	90                   	nop
  202551:	90                   	nop
  202552:	90                   	nop
  202553:	90                   	nop
  202554:	90                   	nop
  202555:	90                   	nop
  202556:	90                   	nop
  202557:	90                   	nop
  202558:	90                   	nop
  202559:	90                   	nop
  20255a:	90                   	nop
  20255b:	90                   	nop
  20255c:	90                   	nop
  20255d:	90                   	nop
  20255e:	90                   	nop
  20255f:	90                   	nop
  202560:	90                   	nop
  202561:	90                   	nop
  202562:	90                   	nop
  202563:	90                   	nop
  202564:	90                   	nop
  202565:	90                   	nop
  202566:	90                   	nop
  202567:	90                   	nop
  202568:	90                   	nop
  202569:	90                   	nop
  20256a:	90                   	nop
  20256b:	90                   	nop
  20256c:	90                   	nop
  20256d:	90                   	nop
  20256e:	90                   	nop
  20256f:	90                   	nop
  202570:	90                   	nop
  202571:	90                   	nop
  202572:	90                   	nop
  202573:	90                   	nop
  202574:	90                   	nop
  202575:	90                   	nop
  202576:	90                   	nop
  202577:	90                   	nop
  202578:	90                   	nop
  202579:	90                   	nop
  20257a:	90                   	nop
  20257b:	90                   	nop
  20257c:	90                   	nop
  20257d:	90                   	nop
  20257e:	90                   	nop
  20257f:	90                   	nop
  202580:	90                   	nop
  202581:	90                   	nop
  202582:	90                   	nop
  202583:	90                   	nop
  202584:	90                   	nop
  202585:	90                   	nop
  202586:	90                   	nop
  202587:	90                   	nop
  202588:	90                   	nop
  202589:	90                   	nop
  20258a:	90                   	nop
  20258b:	90                   	nop
  20258c:	90                   	nop
  20258d:	90                   	nop
  20258e:	90                   	nop
  20258f:	90                   	nop
  202590:	90                   	nop
  202591:	90                   	nop
  202592:	90                   	nop
  202593:	90                   	nop
  202594:	90                   	nop
  202595:	90                   	nop
  202596:	90                   	nop
  202597:	90                   	nop
  202598:	90                   	nop
  202599:	90                   	nop
  20259a:	90                   	nop
  20259b:	90                   	nop
  20259c:	90                   	nop
  20259d:	90                   	nop
  20259e:	90                   	nop
  20259f:	90                   	nop
  2025a0:	90                   	nop
  2025a1:	90                   	nop
  2025a2:	90                   	nop
  2025a3:	90                   	nop
  2025a4:	90                   	nop
  2025a5:	90                   	nop
  2025a6:	90                   	nop
  2025a7:	90                   	nop
  2025a8:	90                   	nop
  2025a9:	90                   	nop
  2025aa:	90                   	nop
  2025ab:	90                   	nop
  2025ac:	90                   	nop
  2025ad:	90                   	nop
  2025ae:	90                   	nop
  2025af:	90                   	nop
  2025b0:	90                   	nop
  2025b1:	90                   	nop
  2025b2:	90                   	nop
  2025b3:	90                   	nop
  2025b4:	90                   	nop
  2025b5:	90                   	nop
  2025b6:	90                   	nop
  2025b7:	90                   	nop
  2025b8:	90                   	nop
  2025b9:	90                   	nop
  2025ba:	90                   	nop
  2025bb:	90                   	nop
  2025bc:	90                   	nop
  2025bd:	90                   	nop
  2025be:	90                   	nop
  2025bf:	90                   	nop
  2025c0:	90                   	nop
  2025c1:	90                   	nop
  2025c2:	90                   	nop
  2025c3:	90                   	nop
  2025c4:	90                   	nop
  2025c5:	90                   	nop
  2025c6:	90                   	nop
  2025c7:	90                   	nop
  2025c8:	90                   	nop
  2025c9:	90                   	nop
  2025ca:	90                   	nop
  2025cb:	90                   	nop
  2025cc:	90                   	nop
  2025cd:	90                   	nop
  2025ce:	90                   	nop
  2025cf:	90                   	nop
  2025d0:	90                   	nop
  2025d1:	90                   	nop
  2025d2:	90                   	nop
  2025d3:	90                   	nop
  2025d4:	90                   	nop
  2025d5:	90                   	nop
  2025d6:	90                   	nop
  2025d7:	90                   	nop
  2025d8:	90                   	nop
  2025d9:	90                   	nop
  2025da:	90                   	nop
  2025db:	90                   	nop
  2025dc:	90                   	nop
  2025dd:	90                   	nop
  2025de:	90                   	nop
  2025df:	90                   	nop
  2025e0:	90                   	nop
  2025e1:	90                   	nop
  2025e2:	90                   	nop
  2025e3:	90                   	nop
  2025e4:	90                   	nop
  2025e5:	90                   	nop
  2025e6:	90                   	nop
  2025e7:	90                   	nop
  2025e8:	90                   	nop
  2025e9:	90                   	nop
  2025ea:	90                   	nop
  2025eb:	90                   	nop
  2025ec:	90                   	nop
  2025ed:	90                   	nop
  2025ee:	90                   	nop
  2025ef:	90                   	nop
  2025f0:	90                   	nop
  2025f1:	90                   	nop
  2025f2:	90                   	nop
  2025f3:	90                   	nop
  2025f4:	90                   	nop
  2025f5:	90                   	nop
  2025f6:	90                   	nop
  2025f7:	90                   	nop
  2025f8:	90                   	nop
  2025f9:	90                   	nop
  2025fa:	90                   	nop
  2025fb:	90                   	nop
  2025fc:	90                   	nop
  2025fd:	90                   	nop
  2025fe:	90                   	nop
  2025ff:	90                   	nop
  202600:	90                   	nop
  202601:	90                   	nop
  202602:	90                   	nop
  202603:	90                   	nop
  202604:	90                   	nop
  202605:	90                   	nop
  202606:	90                   	nop
  202607:	90                   	nop
  202608:	90                   	nop
  202609:	90                   	nop
  20260a:	90                   	nop
  20260b:	90                   	nop
  20260c:	90                   	nop
  20260d:	90                   	nop
  20260e:	90                   	nop
  20260f:	90                   	nop
  202610:	90                   	nop
  202611:	90                   	nop
  202612:	90                   	nop
  202613:	90                   	nop
  202614:	90                   	nop
  202615:	90                   	nop
  202616:	90                   	nop
  202617:	90                   	nop
  202618:	90                   	nop
  202619:	90                   	nop
  20261a:	90                   	nop
  20261b:	90                   	nop
  20261c:	90                   	nop
  20261d:	90                   	nop
  20261e:	90                   	nop
  20261f:	90                   	nop
  202620:	90                   	nop
  202621:	90                   	nop
  202622:	90                   	nop
  202623:	90                   	nop
  202624:	90                   	nop
  202625:	90                   	nop
  202626:	90                   	nop
  202627:	90                   	nop
  202628:	90                   	nop
  202629:	90                   	nop
  20262a:	90                   	nop
  20262b:	90                   	nop
  20262c:	90                   	nop
  20262d:	90                   	nop
  20262e:	90                   	nop
  20262f:	90                   	nop
  202630:	90                   	nop
  202631:	90                   	nop
  202632:	90                   	nop
  202633:	90                   	nop
  202634:	90                   	nop
  202635:	90                   	nop
  202636:	90                   	nop
  202637:	90                   	nop
  202638:	90                   	nop
  202639:	90                   	nop
  20263a:	90                   	nop
  20263b:	90                   	nop
  20263c:	90                   	nop
  20263d:	90                   	nop
  20263e:	90                   	nop
  20263f:	90                   	nop
  202640:	90                   	nop
  202641:	90                   	nop
  202642:	90                   	nop
  202643:	90                   	nop
  202644:	90                   	nop
  202645:	90                   	nop
  202646:	90                   	nop
  202647:	90                   	nop
  202648:	90                   	nop
  202649:	90                   	nop
  20264a:	90                   	nop
  20264b:	90                   	nop
  20264c:	90                   	nop
  20264d:	90                   	nop
  20264e:	90                   	nop
  20264f:	90                   	nop
  202650:	90                   	nop
  202651:	90                   	nop
  202652:	90                   	nop
  202653:	90                   	nop
  202654:	90                   	nop
  202655:	90                   	nop
  202656:	90                   	nop
  202657:	90                   	nop
  202658:	90                   	nop
  202659:	90                   	nop
  20265a:	90                   	nop
  20265b:	90                   	nop
  20265c:	90                   	nop
  20265d:	90                   	nop
  20265e:	90                   	nop
  20265f:	90                   	nop
  202660:	90                   	nop
  202661:	90                   	nop
  202662:	90                   	nop
  202663:	90                   	nop
  202664:	90                   	nop
  202665:	90                   	nop
  202666:	90                   	nop
  202667:	90                   	nop
  202668:	90                   	nop
  202669:	90                   	nop
  20266a:	90                   	nop
  20266b:	90                   	nop
  20266c:	90                   	nop
  20266d:	90                   	nop
  20266e:	90                   	nop
  20266f:	90                   	nop
  202670:	90                   	nop
  202671:	90                   	nop
  202672:	90                   	nop
  202673:	90                   	nop
  202674:	90                   	nop
  202675:	90                   	nop
  202676:	90                   	nop
  202677:	90                   	nop
  202678:	90                   	nop
  202679:	90                   	nop
  20267a:	90                   	nop
  20267b:	90                   	nop
  20267c:	90                   	nop
  20267d:	90                   	nop
  20267e:	90                   	nop
  20267f:	90                   	nop
  202680:	90                   	nop
  202681:	90                   	nop
  202682:	90                   	nop
  202683:	90                   	nop
  202684:	90                   	nop
  202685:	90                   	nop
  202686:	90                   	nop
  202687:	90                   	nop
  202688:	90                   	nop
  202689:	90                   	nop
  20268a:	90                   	nop
  20268b:	90                   	nop
  20268c:	90                   	nop
  20268d:	90                   	nop
  20268e:	90                   	nop
  20268f:	90                   	nop
  202690:	90                   	nop
  202691:	90                   	nop
  202692:	90                   	nop
  202693:	90                   	nop
  202694:	90                   	nop
  202695:	90                   	nop
  202696:	90                   	nop
  202697:	90                   	nop
  202698:	90                   	nop
  202699:	90                   	nop
  20269a:	90                   	nop
  20269b:	90                   	nop
  20269c:	90                   	nop
  20269d:	90                   	nop
  20269e:	90                   	nop
  20269f:	90                   	nop
  2026a0:	90                   	nop
  2026a1:	90                   	nop
  2026a2:	90                   	nop
  2026a3:	90                   	nop
  2026a4:	90                   	nop
  2026a5:	90                   	nop
  2026a6:	90                   	nop
  2026a7:	90                   	nop
  2026a8:	90                   	nop
  2026a9:	90                   	nop
  2026aa:	90                   	nop
  2026ab:	90                   	nop
  2026ac:	90                   	nop
  2026ad:	90                   	nop
  2026ae:	90                   	nop
  2026af:	90                   	nop
  2026b0:	90                   	nop
  2026b1:	90                   	nop
  2026b2:	90                   	nop
  2026b3:	90                   	nop
  2026b4:	90                   	nop
  2026b5:	90                   	nop
  2026b6:	90                   	nop
  2026b7:	90                   	nop
  2026b8:	90                   	nop
  2026b9:	90                   	nop
  2026ba:	90                   	nop
  2026bb:	90                   	nop
  2026bc:	90                   	nop
  2026bd:	90                   	nop
  2026be:	90                   	nop
  2026bf:	90                   	nop
  2026c0:	90                   	nop
  2026c1:	90                   	nop
  2026c2:	90                   	nop
  2026c3:	90                   	nop
  2026c4:	90                   	nop
  2026c5:	90                   	nop
  2026c6:	90                   	nop
  2026c7:	90                   	nop
  2026c8:	90                   	nop
  2026c9:	90                   	nop
  2026ca:	90                   	nop
  2026cb:	90                   	nop
  2026cc:	90                   	nop
  2026cd:	90                   	nop
  2026ce:	90                   	nop
  2026cf:	90                   	nop
  2026d0:	90                   	nop
  2026d1:	90                   	nop
  2026d2:	90                   	nop
  2026d3:	90                   	nop
  2026d4:	90                   	nop
  2026d5:	90                   	nop
  2026d6:	90                   	nop
  2026d7:	90                   	nop
  2026d8:	90                   	nop
  2026d9:	90                   	nop
  2026da:	90                   	nop
  2026db:	90                   	nop
  2026dc:	90                   	nop
  2026dd:	90                   	nop
  2026de:	90                   	nop
  2026df:	90                   	nop
  2026e0:	90                   	nop
  2026e1:	90                   	nop
  2026e2:	90                   	nop
  2026e3:	90                   	nop
  2026e4:	90                   	nop
  2026e5:	90                   	nop
  2026e6:	90                   	nop
  2026e7:	90                   	nop
  2026e8:	90                   	nop
  2026e9:	90                   	nop
  2026ea:	90                   	nop
  2026eb:	90                   	nop
  2026ec:	90                   	nop
  2026ed:	90                   	nop
  2026ee:	90                   	nop
  2026ef:	90                   	nop
  2026f0:	90                   	nop
  2026f1:	90                   	nop
  2026f2:	90                   	nop
  2026f3:	90                   	nop
  2026f4:	90                   	nop
  2026f5:	90                   	nop
  2026f6:	90                   	nop
  2026f7:	90                   	nop
  2026f8:	90                   	nop
  2026f9:	90                   	nop
  2026fa:	90                   	nop
  2026fb:	90                   	nop
  2026fc:	90                   	nop
  2026fd:	90                   	nop
  2026fe:	90                   	nop
  2026ff:	90                   	nop
  202700:	90                   	nop
  202701:	90                   	nop
  202702:	90                   	nop
  202703:	90                   	nop
  202704:	90                   	nop
  202705:	90                   	nop
  202706:	90                   	nop
  202707:	90                   	nop
  202708:	90                   	nop
  202709:	90                   	nop
  20270a:	90                   	nop
  20270b:	90                   	nop
  20270c:	90                   	nop
  20270d:	90                   	nop
  20270e:	90                   	nop
  20270f:	90                   	nop
  202710:	90                   	nop
  202711:	90                   	nop
  202712:	90                   	nop
  202713:	90                   	nop
  202714:	90                   	nop
  202715:	90                   	nop
  202716:	90                   	nop
  202717:	90                   	nop
  202718:	90                   	nop
  202719:	90                   	nop
  20271a:	90                   	nop
  20271b:	90                   	nop
  20271c:	90                   	nop
  20271d:	90                   	nop
  20271e:	90                   	nop
  20271f:	90                   	nop
  202720:	90                   	nop
  202721:	90                   	nop
  202722:	90                   	nop
  202723:	90                   	nop
  202724:	90                   	nop
  202725:	90                   	nop
  202726:	90                   	nop
  202727:	90                   	nop
  202728:	90                   	nop
  202729:	90                   	nop
  20272a:	90                   	nop
  20272b:	90                   	nop
  20272c:	90                   	nop
  20272d:	90                   	nop
  20272e:	90                   	nop
  20272f:	90                   	nop
  202730:	90                   	nop
  202731:	90                   	nop
  202732:	90                   	nop
  202733:	90                   	nop
  202734:	90                   	nop
  202735:	90                   	nop
  202736:	90                   	nop
  202737:	90                   	nop
  202738:	90                   	nop
  202739:	90                   	nop
  20273a:	90                   	nop
  20273b:	90                   	nop
  20273c:	90                   	nop
  20273d:	90                   	nop
  20273e:	90                   	nop
  20273f:	90                   	nop
  202740:	90                   	nop
  202741:	90                   	nop
  202742:	90                   	nop
  202743:	90                   	nop
  202744:	90                   	nop
  202745:	90                   	nop
  202746:	90                   	nop
  202747:	90                   	nop
  202748:	90                   	nop
  202749:	90                   	nop
  20274a:	90                   	nop
  20274b:	90                   	nop
  20274c:	90                   	nop
  20274d:	90                   	nop
  20274e:	90                   	nop
  20274f:	90                   	nop
  202750:	90                   	nop
  202751:	90                   	nop
  202752:	90                   	nop
  202753:	90                   	nop
  202754:	90                   	nop
  202755:	90                   	nop
  202756:	90                   	nop
  202757:	90                   	nop
  202758:	90                   	nop
  202759:	90                   	nop
  20275a:	90                   	nop
  20275b:	90                   	nop
  20275c:	90                   	nop
  20275d:	90                   	nop
  20275e:	90                   	nop
  20275f:	90                   	nop
  202760:	90                   	nop
  202761:	90                   	nop
  202762:	90                   	nop
  202763:	90                   	nop
  202764:	90                   	nop
  202765:	90                   	nop
  202766:	90                   	nop
  202767:	90                   	nop
  202768:	90                   	nop
  202769:	90                   	nop
  20276a:	90                   	nop
  20276b:	90                   	nop
  20276c:	90                   	nop
  20276d:	90                   	nop
  20276e:	90                   	nop
  20276f:	90                   	nop
  202770:	90                   	nop
  202771:	90                   	nop
  202772:	90                   	nop
  202773:	90                   	nop
  202774:	90                   	nop
  202775:	90                   	nop
  202776:	90                   	nop
  202777:	90                   	nop
  202778:	90                   	nop
  202779:	90                   	nop
  20277a:	90                   	nop
  20277b:	90                   	nop
  20277c:	90                   	nop
  20277d:	90                   	nop
  20277e:	90                   	nop
  20277f:	90                   	nop
  202780:	90                   	nop
  202781:	90                   	nop
  202782:	90                   	nop
  202783:	90                   	nop
  202784:	90                   	nop
  202785:	90                   	nop
  202786:	90                   	nop
  202787:	90                   	nop
  202788:	90                   	nop
  202789:	90                   	nop
  20278a:	90                   	nop
  20278b:	90                   	nop
  20278c:	90                   	nop
  20278d:	90                   	nop
  20278e:	90                   	nop
  20278f:	90                   	nop
  202790:	90                   	nop
  202791:	90                   	nop
  202792:	90                   	nop
  202793:	90                   	nop
  202794:	90                   	nop
  202795:	90                   	nop
  202796:	90                   	nop
  202797:	90                   	nop
  202798:	90                   	nop
  202799:	90                   	nop
  20279a:	90                   	nop
  20279b:	90                   	nop
  20279c:	90                   	nop
  20279d:	90                   	nop
  20279e:	90                   	nop
  20279f:	90                   	nop
  2027a0:	90                   	nop
  2027a1:	90                   	nop
  2027a2:	90                   	nop
  2027a3:	90                   	nop
  2027a4:	90                   	nop
  2027a5:	90                   	nop
  2027a6:	90                   	nop
  2027a7:	90                   	nop
  2027a8:	90                   	nop
  2027a9:	90                   	nop
  2027aa:	90                   	nop
  2027ab:	90                   	nop
  2027ac:	90                   	nop
  2027ad:	90                   	nop
  2027ae:	90                   	nop
  2027af:	90                   	nop
  2027b0:	90                   	nop
  2027b1:	90                   	nop
  2027b2:	90                   	nop
  2027b3:	90                   	nop
  2027b4:	90                   	nop
  2027b5:	90                   	nop
  2027b6:	90                   	nop
  2027b7:	90                   	nop
  2027b8:	90                   	nop
  2027b9:	90                   	nop
  2027ba:	90                   	nop
  2027bb:	90                   	nop
  2027bc:	90                   	nop
  2027bd:	90                   	nop
  2027be:	90                   	nop
  2027bf:	90                   	nop
  2027c0:	90                   	nop
  2027c1:	90                   	nop
  2027c2:	90                   	nop
  2027c3:	90                   	nop
  2027c4:	90                   	nop
  2027c5:	90                   	nop
  2027c6:	90                   	nop
  2027c7:	90                   	nop
  2027c8:	90                   	nop
  2027c9:	90                   	nop
  2027ca:	90                   	nop
  2027cb:	90                   	nop
  2027cc:	90                   	nop
  2027cd:	90                   	nop
  2027ce:	90                   	nop
  2027cf:	90                   	nop
  2027d0:	90                   	nop
  2027d1:	90                   	nop
  2027d2:	90                   	nop
  2027d3:	90                   	nop
  2027d4:	90                   	nop
  2027d5:	90                   	nop
  2027d6:	90                   	nop
  2027d7:	90                   	nop
  2027d8:	90                   	nop
  2027d9:	90                   	nop
  2027da:	90                   	nop
  2027db:	90                   	nop
  2027dc:	90                   	nop
  2027dd:	90                   	nop
  2027de:	90                   	nop
  2027df:	90                   	nop
  2027e0:	90                   	nop
  2027e1:	90                   	nop
  2027e2:	90                   	nop
  2027e3:	90                   	nop
  2027e4:	90                   	nop
  2027e5:	90                   	nop
  2027e6:	90                   	nop
  2027e7:	90                   	nop
  2027e8:	90                   	nop
  2027e9:	90                   	nop
  2027ea:	90                   	nop
  2027eb:	90                   	nop
  2027ec:	90                   	nop
  2027ed:	90                   	nop
  2027ee:	90                   	nop
  2027ef:	90                   	nop
  2027f0:	90                   	nop
  2027f1:	90                   	nop
  2027f2:	90                   	nop
  2027f3:	90                   	nop
  2027f4:	90                   	nop
  2027f5:	90                   	nop
  2027f6:	90                   	nop
  2027f7:	90                   	nop
  2027f8:	90                   	nop
  2027f9:	90                   	nop
  2027fa:	90                   	nop
  2027fb:	90                   	nop
  2027fc:	90                   	nop
  2027fd:	90                   	nop
  2027fe:	90                   	nop
  2027ff:	90                   	nop
  202800:	90                   	nop
  202801:	90                   	nop
  202802:	90                   	nop
  202803:	90                   	nop
  202804:	90                   	nop
  202805:	90                   	nop
  202806:	90                   	nop
  202807:	90                   	nop
  202808:	90                   	nop
  202809:	90                   	nop
  20280a:	90                   	nop
  20280b:	90                   	nop
  20280c:	90                   	nop
  20280d:	90                   	nop
  20280e:	90                   	nop
  20280f:	90                   	nop
  202810:	90                   	nop
  202811:	90                   	nop
  202812:	90                   	nop
  202813:	90                   	nop
  202814:	90                   	nop
  202815:	90                   	nop
  202816:	90                   	nop
  202817:	90                   	nop
  202818:	90                   	nop
  202819:	90                   	nop
  20281a:	90                   	nop
  20281b:	90                   	nop
  20281c:	90                   	nop
  20281d:	90                   	nop
  20281e:	90                   	nop
  20281f:	90                   	nop
  202820:	90                   	nop
  202821:	90                   	nop
  202822:	90                   	nop
  202823:	90                   	nop
  202824:	90                   	nop
  202825:	90                   	nop
  202826:	90                   	nop
  202827:	90                   	nop
  202828:	90                   	nop
  202829:	90                   	nop
  20282a:	90                   	nop
  20282b:	90                   	nop
  20282c:	90                   	nop
  20282d:	90                   	nop
  20282e:	90                   	nop
  20282f:	90                   	nop
  202830:	90                   	nop
  202831:	90                   	nop
  202832:	90                   	nop
  202833:	90                   	nop
  202834:	90                   	nop
  202835:	90                   	nop
  202836:	90                   	nop
  202837:	90                   	nop
  202838:	90                   	nop
  202839:	90                   	nop
  20283a:	90                   	nop
  20283b:	90                   	nop
  20283c:	90                   	nop
  20283d:	90                   	nop
  20283e:	90                   	nop
  20283f:	90                   	nop
  202840:	90                   	nop
  202841:	90                   	nop
  202842:	90                   	nop
  202843:	90                   	nop
  202844:	90                   	nop
  202845:	90                   	nop
  202846:	90                   	nop
  202847:	90                   	nop
  202848:	90                   	nop
  202849:	90                   	nop
  20284a:	90                   	nop
  20284b:	90                   	nop
  20284c:	90                   	nop
  20284d:	90                   	nop
  20284e:	90                   	nop
  20284f:	90                   	nop
  202850:	90                   	nop
  202851:	90                   	nop
  202852:	90                   	nop
  202853:	90                   	nop
  202854:	90                   	nop
  202855:	90                   	nop
  202856:	90                   	nop
  202857:	90                   	nop
  202858:	90                   	nop
  202859:	90                   	nop
  20285a:	90                   	nop
  20285b:	90                   	nop
  20285c:	90                   	nop
  20285d:	90                   	nop
  20285e:	90                   	nop
  20285f:	90                   	nop
  202860:	90                   	nop
  202861:	90                   	nop
  202862:	90                   	nop
  202863:	90                   	nop
  202864:	90                   	nop
  202865:	90                   	nop
  202866:	90                   	nop
  202867:	90                   	nop
  202868:	90                   	nop
  202869:	90                   	nop
  20286a:	90                   	nop
  20286b:	90                   	nop
  20286c:	90                   	nop
  20286d:	90                   	nop
  20286e:	90                   	nop
  20286f:	90                   	nop
  202870:	90                   	nop
  202871:	90                   	nop
  202872:	90                   	nop
  202873:	90                   	nop
  202874:	90                   	nop
  202875:	90                   	nop
  202876:	90                   	nop
  202877:	90                   	nop
  202878:	90                   	nop
  202879:	90                   	nop
  20287a:	90                   	nop
  20287b:	90                   	nop
  20287c:	90                   	nop
  20287d:	90                   	nop
  20287e:	90                   	nop
  20287f:	90                   	nop
  202880:	90                   	nop
  202881:	90                   	nop
  202882:	90                   	nop
  202883:	90                   	nop
  202884:	90                   	nop
  202885:	90                   	nop
  202886:	90                   	nop
  202887:	90                   	nop
  202888:	90                   	nop
  202889:	90                   	nop
  20288a:	90                   	nop
  20288b:	90                   	nop
  20288c:	90                   	nop
  20288d:	90                   	nop
  20288e:	90                   	nop
  20288f:	90                   	nop
  202890:	90                   	nop
  202891:	90                   	nop
  202892:	90                   	nop
  202893:	90                   	nop
  202894:	90                   	nop
  202895:	90                   	nop
  202896:	90                   	nop
  202897:	90                   	nop
  202898:	90                   	nop
  202899:	90                   	nop
  20289a:	90                   	nop
  20289b:	90                   	nop
  20289c:	90                   	nop
  20289d:	90                   	nop
  20289e:	90                   	nop
  20289f:	90                   	nop
  2028a0:	90                   	nop
  2028a1:	90                   	nop
  2028a2:	90                   	nop
  2028a3:	90                   	nop
  2028a4:	90                   	nop
  2028a5:	90                   	nop
  2028a6:	90                   	nop
  2028a7:	90                   	nop
  2028a8:	90                   	nop
  2028a9:	90                   	nop
  2028aa:	90                   	nop
  2028ab:	90                   	nop
  2028ac:	90                   	nop
  2028ad:	90                   	nop
  2028ae:	90                   	nop
  2028af:	90                   	nop
  2028b0:	90                   	nop
  2028b1:	90                   	nop
  2028b2:	90                   	nop
  2028b3:	90                   	nop
  2028b4:	90                   	nop
  2028b5:	90                   	nop
  2028b6:	90                   	nop
  2028b7:	90                   	nop
  2028b8:	90                   	nop
  2028b9:	90                   	nop
  2028ba:	90                   	nop
  2028bb:	90                   	nop
  2028bc:	90                   	nop
  2028bd:	90                   	nop
  2028be:	90                   	nop
  2028bf:	90                   	nop
  2028c0:	90                   	nop
  2028c1:	90                   	nop
  2028c2:	90                   	nop
  2028c3:	90                   	nop
  2028c4:	90                   	nop
  2028c5:	90                   	nop
  2028c6:	90                   	nop
  2028c7:	90                   	nop
  2028c8:	90                   	nop
  2028c9:	90                   	nop
  2028ca:	90                   	nop
  2028cb:	90                   	nop
  2028cc:	90                   	nop
  2028cd:	90                   	nop
  2028ce:	90                   	nop
  2028cf:	90                   	nop
  2028d0:	90                   	nop
  2028d1:	90                   	nop
  2028d2:	90                   	nop
  2028d3:	90                   	nop
  2028d4:	90                   	nop
  2028d5:	90                   	nop
  2028d6:	90                   	nop
  2028d7:	90                   	nop
  2028d8:	90                   	nop
  2028d9:	90                   	nop
  2028da:	90                   	nop
  2028db:	90                   	nop
  2028dc:	90                   	nop
  2028dd:	90                   	nop
  2028de:	90                   	nop
  2028df:	90                   	nop
  2028e0:	90                   	nop
  2028e1:	90                   	nop
  2028e2:	90                   	nop
  2028e3:	90                   	nop
  2028e4:	90                   	nop
  2028e5:	90                   	nop
  2028e6:	90                   	nop
  2028e7:	90                   	nop
  2028e8:	90                   	nop
  2028e9:	90                   	nop
  2028ea:	90                   	nop
  2028eb:	90                   	nop
  2028ec:	90                   	nop
  2028ed:	90                   	nop
  2028ee:	90                   	nop
  2028ef:	90                   	nop
  2028f0:	90                   	nop
  2028f1:	90                   	nop
  2028f2:	90                   	nop
  2028f3:	90                   	nop
  2028f4:	90                   	nop
  2028f5:	90                   	nop
  2028f6:	90                   	nop
  2028f7:	90                   	nop
  2028f8:	90                   	nop
  2028f9:	90                   	nop
  2028fa:	90                   	nop
  2028fb:	90                   	nop
  2028fc:	90                   	nop
  2028fd:	90                   	nop
  2028fe:	90                   	nop
  2028ff:	90                   	nop
  202900:	90                   	nop
  202901:	90                   	nop
  202902:	90                   	nop
  202903:	90                   	nop
  202904:	90                   	nop
  202905:	90                   	nop
  202906:	90                   	nop
  202907:	90                   	nop
  202908:	90                   	nop
  202909:	90                   	nop
  20290a:	90                   	nop
  20290b:	90                   	nop
  20290c:	90                   	nop
  20290d:	90                   	nop
  20290e:	90                   	nop
  20290f:	90                   	nop
  202910:	90                   	nop
  202911:	90                   	nop
  202912:	90                   	nop
  202913:	90                   	nop
  202914:	90                   	nop
  202915:	90                   	nop
  202916:	90                   	nop
  202917:	90                   	nop
  202918:	90                   	nop
  202919:	90                   	nop
  20291a:	90                   	nop
  20291b:	90                   	nop
  20291c:	90                   	nop
  20291d:	90                   	nop
  20291e:	90                   	nop
  20291f:	90                   	nop
  202920:	90                   	nop
  202921:	90                   	nop
  202922:	90                   	nop
  202923:	90                   	nop
  202924:	90                   	nop
  202925:	90                   	nop
  202926:	90                   	nop
  202927:	90                   	nop
  202928:	90                   	nop
  202929:	90                   	nop
  20292a:	90                   	nop
  20292b:	90                   	nop
  20292c:	90                   	nop
  20292d:	90                   	nop
  20292e:	90                   	nop
  20292f:	90                   	nop
  202930:	90                   	nop
  202931:	90                   	nop
  202932:	90                   	nop
  202933:	90                   	nop
  202934:	90                   	nop
  202935:	90                   	nop
  202936:	90                   	nop
  202937:	90                   	nop
  202938:	90                   	nop
  202939:	90                   	nop
  20293a:	90                   	nop
  20293b:	90                   	nop
  20293c:	90                   	nop
  20293d:	90                   	nop
  20293e:	90                   	nop
  20293f:	90                   	nop
  202940:	90                   	nop
  202941:	90                   	nop
  202942:	90                   	nop
  202943:	90                   	nop
  202944:	90                   	nop
  202945:	90                   	nop
  202946:	90                   	nop
  202947:	90                   	nop
  202948:	90                   	nop
  202949:	90                   	nop
  20294a:	90                   	nop
  20294b:	90                   	nop
  20294c:	90                   	nop
  20294d:	90                   	nop
  20294e:	90                   	nop
  20294f:	90                   	nop
  202950:	90                   	nop
  202951:	90                   	nop
  202952:	90                   	nop
  202953:	90                   	nop
  202954:	90                   	nop
  202955:	90                   	nop
  202956:	90                   	nop
  202957:	90                   	nop
  202958:	90                   	nop
  202959:	90                   	nop
  20295a:	90                   	nop
  20295b:	90                   	nop
  20295c:	90                   	nop
  20295d:	90                   	nop
  20295e:	90                   	nop
  20295f:	90                   	nop
  202960:	90                   	nop
  202961:	90                   	nop
  202962:	90                   	nop
  202963:	90                   	nop
  202964:	90                   	nop
  202965:	90                   	nop
  202966:	90                   	nop
  202967:	90                   	nop
  202968:	90                   	nop
  202969:	90                   	nop
  20296a:	90                   	nop
  20296b:	90                   	nop
  20296c:	90                   	nop
  20296d:	90                   	nop
  20296e:	90                   	nop
  20296f:	90                   	nop
  202970:	90                   	nop
  202971:	90                   	nop
  202972:	90                   	nop
  202973:	90                   	nop
  202974:	90                   	nop
  202975:	90                   	nop
  202976:	90                   	nop
  202977:	90                   	nop
  202978:	90                   	nop
  202979:	90                   	nop
  20297a:	90                   	nop
  20297b:	90                   	nop
  20297c:	90                   	nop
  20297d:	90                   	nop
  20297e:	90                   	nop
  20297f:	90                   	nop
  202980:	90                   	nop
  202981:	90                   	nop
  202982:	90                   	nop
  202983:	90                   	nop
  202984:	90                   	nop
  202985:	90                   	nop
  202986:	90                   	nop
  202987:	90                   	nop
  202988:	90                   	nop
  202989:	90                   	nop
  20298a:	90                   	nop
  20298b:	90                   	nop
  20298c:	90                   	nop
  20298d:	90                   	nop
  20298e:	90                   	nop
  20298f:	90                   	nop
  202990:	90                   	nop
  202991:	90                   	nop
  202992:	90                   	nop
  202993:	90                   	nop
  202994:	90                   	nop
  202995:	90                   	nop
  202996:	90                   	nop
  202997:	90                   	nop
  202998:	90                   	nop
  202999:	90                   	nop
  20299a:	90                   	nop
  20299b:	90                   	nop
  20299c:	90                   	nop
  20299d:	90                   	nop
  20299e:	90                   	nop
  20299f:	90                   	nop
  2029a0:	90                   	nop
  2029a1:	90                   	nop
  2029a2:	90                   	nop
  2029a3:	90                   	nop
  2029a4:	90                   	nop
  2029a5:	90                   	nop
  2029a6:	90                   	nop
  2029a7:	90                   	nop
  2029a8:	90                   	nop
  2029a9:	90                   	nop
  2029aa:	90                   	nop
  2029ab:	90                   	nop
  2029ac:	90                   	nop
  2029ad:	90                   	nop
  2029ae:	90                   	nop
  2029af:	90                   	nop
  2029b0:	90                   	nop
  2029b1:	90                   	nop
  2029b2:	90                   	nop
  2029b3:	90                   	nop
  2029b4:	90                   	nop
  2029b5:	90                   	nop
  2029b6:	90                   	nop
  2029b7:	90                   	nop
  2029b8:	90                   	nop
  2029b9:	90                   	nop
  2029ba:	90                   	nop
  2029bb:	90                   	nop
  2029bc:	90                   	nop
  2029bd:	90                   	nop
  2029be:	90                   	nop
  2029bf:	90                   	nop
  2029c0:	90                   	nop
  2029c1:	90                   	nop
  2029c2:	90                   	nop
  2029c3:	90                   	nop
  2029c4:	90                   	nop
  2029c5:	90                   	nop
  2029c6:	90                   	nop
  2029c7:	90                   	nop
  2029c8:	90                   	nop
  2029c9:	90                   	nop
  2029ca:	90                   	nop
  2029cb:	90                   	nop
  2029cc:	90                   	nop
  2029cd:	90                   	nop
  2029ce:	90                   	nop
  2029cf:	90                   	nop
  2029d0:	90                   	nop
  2029d1:	90                   	nop
  2029d2:	90                   	nop
  2029d3:	90                   	nop
  2029d4:	90                   	nop
  2029d5:	90                   	nop
  2029d6:	90                   	nop
  2029d7:	90                   	nop
  2029d8:	90                   	nop
  2029d9:	90                   	nop
  2029da:	90                   	nop
  2029db:	90                   	nop
  2029dc:	90                   	nop
  2029dd:	90                   	nop
  2029de:	90                   	nop
  2029df:	90                   	nop
  2029e0:	90                   	nop
  2029e1:	90                   	nop
  2029e2:	90                   	nop
  2029e3:	90                   	nop
  2029e4:	90                   	nop
  2029e5:	90                   	nop
  2029e6:	90                   	nop
  2029e7:	90                   	nop
  2029e8:	90                   	nop
  2029e9:	90                   	nop
  2029ea:	90                   	nop
  2029eb:	90                   	nop
  2029ec:	90                   	nop
  2029ed:	90                   	nop
  2029ee:	90                   	nop
  2029ef:	90                   	nop
  2029f0:	90                   	nop
  2029f1:	90                   	nop
  2029f2:	90                   	nop
  2029f3:	90                   	nop
  2029f4:	90                   	nop
  2029f5:	90                   	nop
  2029f6:	90                   	nop
  2029f7:	90                   	nop
  2029f8:	90                   	nop
  2029f9:	90                   	nop
  2029fa:	90                   	nop
  2029fb:	90                   	nop
  2029fc:	90                   	nop
  2029fd:	90                   	nop
  2029fe:	90                   	nop
  2029ff:	90                   	nop
  202a00:	90                   	nop
  202a01:	90                   	nop
  202a02:	90                   	nop
  202a03:	90                   	nop
  202a04:	90                   	nop
  202a05:	90                   	nop
  202a06:	90                   	nop
  202a07:	90                   	nop
  202a08:	90                   	nop
  202a09:	90                   	nop
  202a0a:	90                   	nop
  202a0b:	90                   	nop
  202a0c:	90                   	nop
  202a0d:	90                   	nop
  202a0e:	90                   	nop
  202a0f:	90                   	nop
  202a10:	90                   	nop
  202a11:	90                   	nop
  202a12:	90                   	nop
  202a13:	90                   	nop
  202a14:	90                   	nop
  202a15:	90                   	nop
  202a16:	90                   	nop
  202a17:	90                   	nop
  202a18:	90                   	nop
  202a19:	90                   	nop
  202a1a:	90                   	nop
  202a1b:	90                   	nop
  202a1c:	90                   	nop
  202a1d:	90                   	nop
  202a1e:	90                   	nop
  202a1f:	90                   	nop
  202a20:	90                   	nop
  202a21:	90                   	nop
  202a22:	90                   	nop
  202a23:	90                   	nop
  202a24:	90                   	nop
  202a25:	90                   	nop
  202a26:	90                   	nop
  202a27:	90                   	nop
  202a28:	90                   	nop
  202a29:	90                   	nop
  202a2a:	90                   	nop
  202a2b:	90                   	nop
  202a2c:	90                   	nop
  202a2d:	90                   	nop
  202a2e:	90                   	nop
  202a2f:	90                   	nop
  202a30:	90                   	nop
  202a31:	90                   	nop
  202a32:	90                   	nop
  202a33:	90                   	nop
  202a34:	90                   	nop
  202a35:	90                   	nop
  202a36:	90                   	nop
  202a37:	90                   	nop
  202a38:	90                   	nop
  202a39:	90                   	nop
  202a3a:	90                   	nop
  202a3b:	90                   	nop
  202a3c:	90                   	nop
  202a3d:	90                   	nop
  202a3e:	90                   	nop
  202a3f:	90                   	nop
  202a40:	90                   	nop
  202a41:	90                   	nop
  202a42:	90                   	nop
  202a43:	90                   	nop
  202a44:	90                   	nop
  202a45:	90                   	nop
  202a46:	90                   	nop
  202a47:	90                   	nop
  202a48:	90                   	nop
  202a49:	90                   	nop
  202a4a:	90                   	nop
  202a4b:	90                   	nop
  202a4c:	90                   	nop
  202a4d:	90                   	nop
  202a4e:	90                   	nop
  202a4f:	90                   	nop
  202a50:	90                   	nop
  202a51:	90                   	nop
  202a52:	90                   	nop
  202a53:	90                   	nop
  202a54:	90                   	nop
  202a55:	90                   	nop
  202a56:	90                   	nop
  202a57:	90                   	nop
  202a58:	90                   	nop
  202a59:	90                   	nop
  202a5a:	90                   	nop
  202a5b:	90                   	nop
  202a5c:	90                   	nop
  202a5d:	90                   	nop
  202a5e:	90                   	nop
  202a5f:	90                   	nop
  202a60:	90                   	nop
  202a61:	90                   	nop
  202a62:	90                   	nop
  202a63:	90                   	nop
  202a64:	90                   	nop
  202a65:	90                   	nop
  202a66:	90                   	nop
  202a67:	90                   	nop
  202a68:	90                   	nop
  202a69:	90                   	nop
  202a6a:	90                   	nop
  202a6b:	90                   	nop
  202a6c:	90                   	nop
  202a6d:	90                   	nop
  202a6e:	90                   	nop
  202a6f:	90                   	nop
  202a70:	90                   	nop
  202a71:	90                   	nop
  202a72:	90                   	nop
  202a73:	90                   	nop
  202a74:	90                   	nop
  202a75:	90                   	nop
  202a76:	90                   	nop
  202a77:	90                   	nop
  202a78:	90                   	nop
  202a79:	90                   	nop
  202a7a:	90                   	nop
  202a7b:	90                   	nop
  202a7c:	90                   	nop
  202a7d:	90                   	nop
  202a7e:	90                   	nop
  202a7f:	90                   	nop
  202a80:	90                   	nop
  202a81:	90                   	nop
  202a82:	90                   	nop
  202a83:	90                   	nop
  202a84:	90                   	nop
  202a85:	90                   	nop
  202a86:	90                   	nop
  202a87:	90                   	nop
  202a88:	90                   	nop
  202a89:	90                   	nop
  202a8a:	90                   	nop
  202a8b:	90                   	nop
  202a8c:	90                   	nop
  202a8d:	90                   	nop
  202a8e:	90                   	nop
  202a8f:	90                   	nop
  202a90:	90                   	nop
