
djpeg.org:     file format elf64-x86-64


Disassembly of section .text:

0000000000204000 <_start>:
  204000:	31 ed                	xor    %ebp,%ebp
  204002:	49 89 d1             	mov    %rdx,%r9
  204005:	5e                   	pop    %rsi
  204006:	48 89 e2             	mov    %rsp,%rdx
  204009:	48 83 e4 f0          	and    $0xfffffffffffffff0,%rsp
  20400d:	50                   	push   %rax
  20400e:	54                   	push   %rsp
  20400f:	49 c7 c0 a0 40 20 00 	mov    $0x2040a0,%r8
  204016:	48 c7 c1 30 40 20 00 	mov    $0x204030,%rcx
  20401d:	48 c7 c7 80 41 20 00 	mov    $0x204180,%rdi
  204024:	e8 97 ca 01 00       	callq  220ac0 <__libc_start_main@plt>
  204029:	f4                   	hlt    
  20402a:	cc                   	int3   
  20402b:	cc                   	int3   
  20402c:	cc                   	int3   
  20402d:	cc                   	int3   
  20402e:	cc                   	int3   
  20402f:	cc                   	int3   

0000000000204030 <__libc_csu_init>:
  204030:	41 57                	push   %r15
  204032:	41 56                	push   %r14
  204034:	41 89 ff             	mov    %edi,%r15d
  204037:	41 55                	push   %r13
  204039:	41 54                	push   %r12
  20403b:	4c 8d 25 ce cf 01 00 	lea    0x1cfce(%rip),%r12        # 221010 <__frame_dummy_init_array_entry>
  204042:	55                   	push   %rbp
  204043:	48 8d 2d ce cf 01 00 	lea    0x1cfce(%rip),%rbp        # 221018 <__init_array_end>
  20404a:	53                   	push   %rbx
  20404b:	49 89 f6             	mov    %rsi,%r14
  20404e:	49 89 d5             	mov    %rdx,%r13
  204051:	4c 29 e5             	sub    %r12,%rbp
  204054:	48 83 ec 08          	sub    $0x8,%rsp
  204058:	48 c1 fd 03          	sar    $0x3,%rbp
  20405c:	e8 23 ca 01 00       	callq  220a84 <_init>
  204061:	48 85 ed             	test   %rbp,%rbp
  204064:	74 20                	je     204086 <__libc_csu_init+0x56>
  204066:	31 db                	xor    %ebx,%ebx
  204068:	0f 1f 84 00 00 00 00 	nopl   0x0(%rax,%rax,1)
  20406f:	00 
  204070:	4c 89 ea             	mov    %r13,%rdx
  204073:	4c 89 f6             	mov    %r14,%rsi
  204076:	44 89 ff             	mov    %r15d,%edi
  204079:	41 ff 14 dc          	callq  *(%r12,%rbx,8)
  20407d:	48 83 c3 01          	add    $0x1,%rbx
  204081:	48 39 eb             	cmp    %rbp,%rbx
  204084:	75 ea                	jne    204070 <__libc_csu_init+0x40>
  204086:	48 83 c4 08          	add    $0x8,%rsp
  20408a:	5b                   	pop    %rbx
  20408b:	5d                   	pop    %rbp
  20408c:	41 5c                	pop    %r12
  20408e:	41 5d                	pop    %r13
  204090:	41 5e                	pop    %r14
  204092:	41 5f                	pop    %r15
  204094:	c3                   	retq   
  204095:	90                   	nop
  204096:	66 2e 0f 1f 84 00 00 	nopw   %cs:0x0(%rax,%rax,1)
  20409d:	00 00 00 

00000000002040a0 <__libc_csu_fini>:
  2040a0:	f3 c3                	repz retq 
  2040a2:	cc                   	int3   
  2040a3:	cc                   	int3   
  2040a4:	cc                   	int3   
  2040a5:	cc                   	int3   
  2040a6:	cc                   	int3   
  2040a7:	cc                   	int3   
  2040a8:	cc                   	int3   
  2040a9:	cc                   	int3   
  2040aa:	cc                   	int3   
  2040ab:	cc                   	int3   
  2040ac:	cc                   	int3   
  2040ad:	cc                   	int3   
  2040ae:	cc                   	int3   
  2040af:	cc                   	int3   

00000000002040b0 <deregister_tm_clones>:
  2040b0:	b8 17 20 22 00       	mov    $0x222017,%eax
  2040b5:	55                   	push   %rbp
  2040b6:	48 2d 10 20 22 00    	sub    $0x222010,%rax
  2040bc:	48 83 f8 0e          	cmp    $0xe,%rax
  2040c0:	48 89 e5             	mov    %rsp,%rbp
  2040c3:	76 1b                	jbe    2040e0 <deregister_tm_clones+0x30>
  2040c5:	b8 00 00 00 00       	mov    $0x0,%eax
  2040ca:	48 85 c0             	test   %rax,%rax
  2040cd:	74 11                	je     2040e0 <deregister_tm_clones+0x30>
  2040cf:	5d                   	pop    %rbp
  2040d0:	bf 10 20 22 00       	mov    $0x222010,%edi
  2040d5:	ff e0                	jmpq   *%rax
  2040d7:	66 0f 1f 84 00 00 00 	nopw   0x0(%rax,%rax,1)
  2040de:	00 00 
  2040e0:	5d                   	pop    %rbp
  2040e1:	c3                   	retq   
  2040e2:	0f 1f 40 00          	nopl   0x0(%rax)
  2040e6:	66 2e 0f 1f 84 00 00 	nopw   %cs:0x0(%rax,%rax,1)
  2040ed:	00 00 00 

00000000002040f0 <register_tm_clones>:
  2040f0:	be 10 20 22 00       	mov    $0x222010,%esi
  2040f5:	55                   	push   %rbp
  2040f6:	48 81 ee 10 20 22 00 	sub    $0x222010,%rsi
  2040fd:	48 c1 fe 03          	sar    $0x3,%rsi
  204101:	48 89 e5             	mov    %rsp,%rbp
  204104:	48 89 f0             	mov    %rsi,%rax
  204107:	48 c1 e8 3f          	shr    $0x3f,%rax
  20410b:	48 01 c6             	add    %rax,%rsi
  20410e:	48 d1 fe             	sar    %rsi
  204111:	74 15                	je     204128 <register_tm_clones+0x38>
  204113:	b8 00 00 00 00       	mov    $0x0,%eax
  204118:	48 85 c0             	test   %rax,%rax
  20411b:	74 0b                	je     204128 <register_tm_clones+0x38>
  20411d:	5d                   	pop    %rbp
  20411e:	bf 10 20 22 00       	mov    $0x222010,%edi
  204123:	ff e0                	jmpq   *%rax
  204125:	0f 1f 00             	nopl   (%rax)
  204128:	5d                   	pop    %rbp
  204129:	c3                   	retq   
  20412a:	66 0f 1f 44 00 00    	nopw   0x0(%rax,%rax,1)

0000000000204130 <__do_global_dtors_aux>:
  204130:	80 3d a9 df 01 00 00 	cmpb   $0x0,0x1dfa9(%rip)        # 2220e0 <completed.7594>
  204137:	75 11                	jne    20414a <__do_global_dtors_aux+0x1a>
  204139:	55                   	push   %rbp
  20413a:	48 89 e5             	mov    %rsp,%rbp
  20413d:	e8 6e ff ff ff       	callq  2040b0 <deregister_tm_clones>
  204142:	5d                   	pop    %rbp
  204143:	c6 05 96 df 01 00 01 	movb   $0x1,0x1df96(%rip)        # 2220e0 <completed.7594>
  20414a:	f3 c3                	repz retq 
  20414c:	0f 1f 40 00          	nopl   0x0(%rax)

0000000000204150 <frame_dummy>:
  204150:	bf 08 10 22 00       	mov    $0x221008,%edi
  204155:	48 83 3f 00          	cmpq   $0x0,(%rdi)
  204159:	75 05                	jne    204160 <frame_dummy+0x10>
  20415b:	eb 93                	jmp    2040f0 <register_tm_clones>
  20415d:	0f 1f 00             	nopl   (%rax)
  204160:	b8 00 00 00 00       	mov    $0x0,%eax
  204165:	48 85 c0             	test   %rax,%rax
  204168:	74 f1                	je     20415b <frame_dummy+0xb>
  20416a:	55                   	push   %rbp
  20416b:	48 89 e5             	mov    %rsp,%rbp
  20416e:	ff d0                	callq  *%rax
  204170:	5d                   	pop    %rbp
  204171:	e9 7a ff ff ff       	jmpq   2040f0 <register_tm_clones>
  204176:	cc                   	int3   
  204177:	cc                   	int3   
  204178:	cc                   	int3   
  204179:	cc                   	int3   
  20417a:	cc                   	int3   
  20417b:	cc                   	int3   
  20417c:	cc                   	int3   
  20417d:	cc                   	int3   
  20417e:	cc                   	int3   
  20417f:	cc                   	int3   

0000000000204180 <main>:
  204180:	41 57                	push   %r15
  204182:	41 56                	push   %r14
  204184:	41 55                	push   %r13
  204186:	41 54                	push   %r12
  204188:	53                   	push   %rbx
  204189:	48 81 ec 40 03 00 00 	sub    $0x340,%rsp
  204190:	49 89 f4             	mov    %rsi,%r12
  204193:	41 89 fd             	mov    %edi,%r13d
  204196:	48 8b 06             	mov    (%rsi),%rax
  204199:	48 89 05 48 df 01 00 	mov    %rax,0x1df48(%rip)        # 2220e8 <progname>
  2041a0:	48 85 c0             	test   %rax,%rax
  2041a3:	74 05                	je     2041aa <main+0x2a>
  2041a5:	80 38 00             	cmpb   $0x0,(%rax)
  2041a8:	75 0b                	jne    2041b5 <main+0x35>
  2041aa:	48 c7 05 33 df 01 00 	movq   $0x201d5b,0x1df33(%rip)        # 2220e8 <progname>
  2041b1:	5b 1d 20 00 
  2041b5:	48 8d bc 24 98 02 00 	lea    0x298(%rsp),%rdi
  2041bc:	00 
  2041bd:	e8 2e 0d 00 00       	callq  204ef0 <jpeg_std_error>
  2041c2:	48 89 04 24          	mov    %rax,(%rsp)
  2041c6:	48 89 e3             	mov    %rsp,%rbx
  2041c9:	48 89 df             	mov    %rbx,%rdi
  2041cc:	e8 ef 0f 00 00       	callq  2051c0 <jpeg_CreateDecompress>
  2041d1:	48 c7 84 24 30 03 00 	movq   $0x202b60,0x330(%rsp)
  2041d8:	00 60 2b 20 00 
  2041dd:	48 b8 e8 03 00 00 14 	movabs $0x414000003e8,%rax
  2041e4:	04 00 00 
  2041e7:	48 89 84 24 38 03 00 	mov    %rax,0x338(%rsp)
  2041ee:	00 
  2041ef:	ba 30 44 20 00       	mov    $0x204430,%edx
  2041f4:	48 89 df             	mov    %rbx,%rdi
  2041f7:	be fe 00 00 00       	mov    $0xfe,%esi
  2041fc:	e8 ef 4e 00 00       	callq  2090f0 <jpeg_set_marker_processor>
  204201:	ba 30 44 20 00       	mov    $0x204430,%edx
  204206:	48 89 df             	mov    %rbx,%rdi
  204209:	be ec 00 00 00       	mov    $0xec,%esi
  20420e:	e8 dd 4e 00 00       	callq  2090f0 <jpeg_set_marker_processor>
  204213:	48 89 df             	mov    %rbx,%rdi
  204216:	44 89 ee             	mov    %r13d,%esi
  204219:	4c 89 e2             	mov    %r12,%rdx
  20421c:	31 c9                	xor    %ecx,%ecx
  20421e:	e8 ad 03 00 00       	callq  2045d0 <parse_switches>
  204223:	41 8d 4d ff          	lea    -0x1(%r13),%ecx
  204227:	39 c8                	cmp    %ecx,%eax
  204229:	0f 8c df 01 00 00    	jl     20440e <main+0x28e>
  20422f:	44 39 e8             	cmp    %r13d,%eax
  204232:	7d 2d                	jge    204261 <main+0xe1>
  204234:	48 63 d8             	movslq %eax,%rbx
  204237:	49 8b 3c dc          	mov    (%r12,%rbx,8),%rdi
  20423b:	be 8a 19 20 00       	mov    $0x20198a,%esi
  204240:	e8 9b c8 01 00       	callq  220ae0 <fopen@plt>
  204245:	49 89 c6             	mov    %rax,%r14
  204248:	48 85 c0             	test   %rax,%rax
  20424b:	75 1c                	jne    204269 <main+0xe9>
  20424d:	48 8b 3d ac de 01 00 	mov    0x1deac(%rip),%rdi        # 222100 <stderr>
  204254:	48 8b 15 8d de 01 00 	mov    0x1de8d(%rip),%rdx        # 2220e8 <progname>
  20425b:	49 8b 0c dc          	mov    (%r12,%rbx,8),%rcx
  20425f:	eb 3b                	jmp    20429c <main+0x11c>
  204261:	e8 6a 60 00 00       	callq  20a2d0 <read_stdin>
  204266:	49 89 c6             	mov    %rax,%r14
  204269:	48 8b 3d 80 de 01 00 	mov    0x1de80(%rip),%rdi        # 2220f0 <outfilename>
  204270:	48 85 ff             	test   %rdi,%rdi
  204273:	74 3d                	je     2042b2 <main+0x132>
  204275:	be 67 24 20 00       	mov    $0x202467,%esi
  20427a:	e8 61 c8 01 00       	callq  220ae0 <fopen@plt>
  20427f:	49 89 c7             	mov    %rax,%r15
  204282:	48 85 c0             	test   %rax,%rax
  204285:	75 33                	jne    2042ba <main+0x13a>
  204287:	48 8b 3d 72 de 01 00 	mov    0x1de72(%rip),%rdi        # 222100 <stderr>
  20428e:	48 8b 15 53 de 01 00 	mov    0x1de53(%rip),%rdx        # 2220e8 <progname>
  204295:	48 8b 0d 54 de 01 00 	mov    0x1de54(%rip),%rcx        # 2220f0 <outfilename>
  20429c:	be f1 26 20 00       	mov    $0x2026f1,%esi
  2042a1:	31 c0                	xor    %eax,%eax
  2042a3:	e8 48 c8 01 00       	callq  220af0 <fprintf@plt>
  2042a8:	bf 01 00 00 00       	mov    $0x1,%edi
  2042ad:	e8 4e c8 01 00       	callq  220b00 <exit@plt>
  2042b2:	e8 29 60 00 00       	callq  20a2e0 <write_stdout>
  2042b7:	49 89 c7             	mov    %rax,%r15
  2042ba:	48 89 e3             	mov    %rsp,%rbx
  2042bd:	48 89 df             	mov    %rbx,%rdi
  2042c0:	4c 89 f6             	mov    %r14,%rsi
  2042c3:	e8 28 60 00 00       	callq  20a2f0 <jpeg_stdio_src>
  2042c8:	48 89 df             	mov    %rbx,%rdi
  2042cb:	e8 a0 0f 00 00       	callq  205270 <jpeg_read_header>
  2042d0:	48 89 df             	mov    %rbx,%rdi
  2042d3:	44 89 ee             	mov    %r13d,%esi
  2042d6:	4c 89 e2             	mov    %r12,%rdx
  2042d9:	b9 01 00 00 00       	mov    $0x1,%ecx
  2042de:	e8 ed 02 00 00       	callq  2045d0 <parse_switches>
  2042e3:	8b 05 0f de 01 00    	mov    0x1de0f(%rip),%eax        # 2220f8 <requested_fmt>
  2042e9:	83 f8 01             	cmp    $0x1,%eax
  2042ec:	7e 1c                	jle    20430a <main+0x18a>
  2042ee:	83 f8 02             	cmp    $0x2,%eax
  2042f1:	74 2d                	je     204320 <main+0x1a0>
  2042f3:	83 f8 03             	cmp    $0x3,%eax
  2042f6:	74 32                	je     20432a <main+0x1aa>
  2042f8:	83 f8 05             	cmp    $0x5,%eax
  2042fb:	75 49                	jne    204346 <main+0x1c6>
  2042fd:	48 89 e7             	mov    %rsp,%rdi
  204300:	e8 ab b9 01 00       	callq  21fcb0 <jinit_write_targa>
  204305:	48 89 c3             	mov    %rax,%rbx
  204308:	eb 4e                	jmp    204358 <main+0x1d8>
  20430a:	85 c0                	test   %eax,%eax
  20430c:	74 29                	je     204337 <main+0x1b7>
  20430e:	83 f8 01             	cmp    $0x1,%eax
  204311:	75 33                	jne    204346 <main+0x1c6>
  204313:	48 89 e7             	mov    %rsp,%rdi
  204316:	e8 65 ae 01 00       	callq  21f180 <jinit_write_gif>
  20431b:	48 89 c3             	mov    %rax,%rbx
  20431e:	eb 38                	jmp    204358 <main+0x1d8>
  204320:	48 89 e7             	mov    %rsp,%rdi
  204323:	be 01 00 00 00       	mov    $0x1,%esi
  204328:	eb 12                	jmp    20433c <main+0x1bc>
  20432a:	48 89 e7             	mov    %rsp,%rdi
  20432d:	e8 6e b4 01 00       	callq  21f7a0 <jinit_write_ppm>
  204332:	48 89 c3             	mov    %rax,%rbx
  204335:	eb 21                	jmp    204358 <main+0x1d8>
  204337:	48 89 e7             	mov    %rsp,%rdi
  20433a:	31 f6                	xor    %esi,%esi
  20433c:	e8 2f 61 00 00       	callq  20a470 <jinit_write_bmp>
  204341:	48 89 c3             	mov    %rax,%rbx
  204344:	eb 12                	jmp    204358 <main+0x1d8>
  204346:	48 8b 04 24          	mov    (%rsp),%rax
  20434a:	c7 40 28 13 04 00 00 	movl   $0x413,0x28(%rax)
  204351:	48 89 e7             	mov    %rsp,%rdi
  204354:	ff 10                	callq  *(%rax)
  204356:	31 db                	xor    %ebx,%ebx
  204358:	4c 89 7b 18          	mov    %r15,0x18(%rbx)
  20435c:	49 89 e4             	mov    %rsp,%r12
  20435f:	4c 89 e7             	mov    %r12,%rdi
  204362:	e8 49 bf 01 00       	callq  2202b0 <jpeg_start_decompress>
  204367:	4c 89 e7             	mov    %r12,%rdi
  20436a:	48 89 de             	mov    %rbx,%rsi
  20436d:	ff 13                	callq  *(%rbx)
  20436f:	8b 84 24 a8 00 00 00 	mov    0xa8(%rsp),%eax
  204376:	3b 84 24 8c 00 00 00 	cmp    0x8c(%rsp),%eax
  20437d:	73 3b                	jae    2043ba <main+0x23a>
  20437f:	49 89 e4             	mov    %rsp,%r12
  204382:	90                   	nop
  204383:	90                   	nop
  204384:	90                   	nop
  204385:	90                   	nop
  204386:	90                   	nop
  204387:	90                   	nop
  204388:	90                   	nop
  204389:	90                   	nop
  20438a:	90                   	nop
  20438b:	90                   	nop
  20438c:	90                   	nop
  20438d:	90                   	nop
  20438e:	90                   	nop
  20438f:	90                   	nop
  204390:	48 8b 73 20          	mov    0x20(%rbx),%rsi
  204394:	8b 53 28             	mov    0x28(%rbx),%edx
  204397:	4c 89 e7             	mov    %r12,%rdi
  20439a:	e8 01 c1 01 00       	callq  2204a0 <jpeg_read_scanlines>
  20439f:	4c 89 e7             	mov    %r12,%rdi
  2043a2:	48 89 de             	mov    %rbx,%rsi
  2043a5:	89 c2                	mov    %eax,%edx
  2043a7:	ff 53 08             	callq  *0x8(%rbx)
  2043aa:	8b 84 24 a8 00 00 00 	mov    0xa8(%rsp),%eax
  2043b1:	3b 84 24 8c 00 00 00 	cmp    0x8c(%rsp),%eax
  2043b8:	72 d6                	jb     204390 <main+0x210>
  2043ba:	49 89 e4             	mov    %rsp,%r12
  2043bd:	4c 89 e7             	mov    %r12,%rdi
  2043c0:	48 89 de             	mov    %rbx,%rsi
  2043c3:	ff 53 10             	callq  *0x10(%rbx)
  2043c6:	4c 89 e7             	mov    %r12,%rdi
  2043c9:	e8 62 11 00 00       	callq  205530 <jpeg_finish_decompress>
  2043ce:	4c 89 e7             	mov    %r12,%rdi
  2043d1:	e8 8a 0e 00 00       	callq  205260 <jpeg_destroy_decompress>
  2043d6:	4c 3b 35 33 dd 01 00 	cmp    0x1dd33(%rip),%r14        # 222110 <stdin>
  2043dd:	74 08                	je     2043e7 <main+0x267>
  2043df:	4c 89 f7             	mov    %r14,%rdi
  2043e2:	e8 29 c7 01 00       	callq  220b10 <fclose@plt>
  2043e7:	4c 3b 3d 2a dd 01 00 	cmp    0x1dd2a(%rip),%r15        # 222118 <stdout>
  2043ee:	74 08                	je     2043f8 <main+0x278>
  2043f0:	4c 89 ff             	mov    %r15,%rdi
  2043f3:	e8 18 c7 01 00       	callq  220b10 <fclose@plt>
  2043f8:	31 ff                	xor    %edi,%edi
  2043fa:	48 83 bc 24 18 03 00 	cmpq   $0x0,0x318(%rsp)
  204401:	00 00 
  204403:	40 0f 95 c7          	setne  %dil
  204407:	01 ff                	add    %edi,%edi
  204409:	e8 f2 c6 01 00       	callq  220b00 <exit@plt>
  20440e:	48 8b 3d eb dc 01 00 	mov    0x1dceb(%rip),%rdi        # 222100 <stderr>
  204415:	48 8b 15 cc dc 01 00 	mov    0x1dccc(%rip),%rdx        # 2220e8 <progname>
  20441c:	be 60 2a 20 00       	mov    $0x202a60,%esi
  204421:	31 c0                	xor    %eax,%eax
  204423:	e8 c8 c6 01 00       	callq  220af0 <fprintf@plt>
  204428:	e8 d3 07 00 00       	callq  204c00 <usage>
  20442d:	cc                   	int3   
  20442e:	cc                   	int3   
  20442f:	cc                   	int3   

0000000000204430 <print_text_marker>:
  204430:	55                   	push   %rbp
  204431:	41 57                	push   %r15
  204433:	41 56                	push   %r14
  204435:	41 54                	push   %r12
  204437:	53                   	push   %rbx
  204438:	49 89 fe             	mov    %rdi,%r14
  20443b:	48 8b 07             	mov    (%rdi),%rax
  20443e:	44 8b 78 7c          	mov    0x7c(%rax),%r15d
  204442:	e8 59 0a 00 00       	callq  204ea0 <jpeg_getc>
  204447:	89 c3                	mov    %eax,%ebx
  204449:	c1 e3 08             	shl    $0x8,%ebx
  20444c:	4c 89 f7             	mov    %r14,%rdi
  20444f:	e8 4c 0a 00 00       	callq  204ea0 <jpeg_getc>
  204454:	89 c0                	mov    %eax,%eax
  204456:	4c 8d 24 18          	lea    (%rax,%rbx,1),%r12
  20445a:	49 83 c4 fe          	add    $0xfffffffffffffffe,%r12
  20445e:	45 85 ff             	test   %r15d,%r15d
  204461:	0f 8f f1 00 00 00    	jg     204558 <print_text_marker+0x128>
  204467:	4d 85 e4             	test   %r12,%r12
  20446a:	0f 8e 36 01 00 00    	jle    2045a6 <print_text_marker+0x176>
  204470:	31 ed                	xor    %ebp,%ebp
  204472:	eb 19                	jmp    20448d <print_text_marker+0x5d>
  204474:	90                   	nop
  204475:	90                   	nop
  204476:	90                   	nop
  204477:	90                   	nop
  204478:	90                   	nop
  204479:	90                   	nop
  20447a:	90                   	nop
  20447b:	90                   	nop
  20447c:	90                   	nop
  20447d:	90                   	nop
  20447e:	90                   	nop
  20447f:	90                   	nop
  204480:	89 eb                	mov    %ebp,%ebx
  204482:	89 dd                	mov    %ebx,%ebp
  204484:	4d 85 e4             	test   %r12,%r12
  204487:	0f 8e 19 01 00 00    	jle    2045a6 <print_text_marker+0x176>
  20448d:	49 83 c4 ff          	add    $0xffffffffffffffff,%r12
  204491:	4c 89 f7             	mov    %r14,%rdi
  204494:	e8 07 0a 00 00       	callq  204ea0 <jpeg_getc>
  204499:	45 85 ff             	test   %r15d,%r15d
  20449c:	7e e2                	jle    204480 <print_text_marker+0x50>
  20449e:	89 c3                	mov    %eax,%ebx
  2044a0:	83 f8 0a             	cmp    $0xa,%eax
  2044a3:	74 3b                	je     2044e0 <print_text_marker+0xb0>
  2044a5:	83 fb 5c             	cmp    $0x5c,%ebx
  2044a8:	74 58                	je     204502 <print_text_marker+0xd2>
  2044aa:	83 fb 0d             	cmp    $0xd,%ebx
  2044ad:	74 78                	je     204527 <print_text_marker+0xf7>
  2044af:	e8 6c c6 01 00       	callq  220b20 <__ctype_b_loc@plt>
  2044b4:	48 8b 00             	mov    (%rax),%rax
  2044b7:	48 63 cb             	movslq %ebx,%rcx
  2044ba:	f6 44 48 01 40       	testb  $0x40,0x1(%rax,%rcx,2)
  2044bf:	48 8b 05 3a dc 01 00 	mov    0x1dc3a(%rip),%rax        # 222100 <stderr>
  2044c6:	74 7a                	je     204542 <print_text_marker+0x112>
  2044c8:	89 df                	mov    %ebx,%edi
  2044ca:	48 89 c6             	mov    %rax,%rsi
  2044cd:	e8 5e c6 01 00       	callq  220b30 <_IO_putc@plt>
  2044d2:	eb ae                	jmp    204482 <print_text_marker+0x52>
  2044d4:	90                   	nop
  2044d5:	90                   	nop
  2044d6:	90                   	nop
  2044d7:	90                   	nop
  2044d8:	90                   	nop
  2044d9:	90                   	nop
  2044da:	90                   	nop
  2044db:	90                   	nop
  2044dc:	90                   	nop
  2044dd:	90                   	nop
  2044de:	90                   	nop
  2044df:	90                   	nop
  2044e0:	bb 0a 00 00 00       	mov    $0xa,%ebx
  2044e5:	83 fd 0d             	cmp    $0xd,%ebp
  2044e8:	74 98                	je     204482 <print_text_marker+0x52>
  2044ea:	48 8b 35 0f dc 01 00 	mov    0x1dc0f(%rip),%rsi        # 222100 <stderr>
  2044f1:	bb 0a 00 00 00       	mov    $0xa,%ebx
  2044f6:	bf 0a 00 00 00       	mov    $0xa,%edi
  2044fb:	e8 40 c6 01 00       	callq  220b40 <fputc@plt>
  204500:	eb 80                	jmp    204482 <print_text_marker+0x52>
  204502:	48 8b 0d f7 db 01 00 	mov    0x1dbf7(%rip),%rcx        # 222100 <stderr>
  204509:	bf 4b 1b 20 00       	mov    $0x201b4b,%edi
  20450e:	be 02 00 00 00       	mov    $0x2,%esi
  204513:	ba 01 00 00 00       	mov    $0x1,%edx
  204518:	e8 33 c6 01 00       	callq  220b50 <fwrite@plt>
  20451d:	bb 5c 00 00 00       	mov    $0x5c,%ebx
  204522:	e9 5b ff ff ff       	jmpq   204482 <print_text_marker+0x52>
  204527:	48 8b 35 d2 db 01 00 	mov    0x1dbd2(%rip),%rsi        # 222100 <stderr>
  20452e:	bf 0a 00 00 00       	mov    $0xa,%edi
  204533:	e8 08 c6 01 00       	callq  220b40 <fputc@plt>
  204538:	bb 0d 00 00 00       	mov    $0xd,%ebx
  20453d:	e9 40 ff ff ff       	jmpq   204482 <print_text_marker+0x52>
  204542:	be a0 15 20 00       	mov    $0x2015a0,%esi
  204547:	48 89 c7             	mov    %rax,%rdi
  20454a:	89 da                	mov    %ebx,%edx
  20454c:	31 c0                	xor    %eax,%eax
  20454e:	e8 9d c5 01 00       	callq  220af0 <fprintf@plt>
  204553:	e9 2a ff ff ff       	jmpq   204482 <print_text_marker+0x52>
  204558:	41 8b 96 3c 02 00 00 	mov    0x23c(%r14),%edx
  20455f:	48 8b 3d 9a db 01 00 	mov    0x1db9a(%rip),%rdi        # 222100 <stderr>
  204566:	81 fa fe 00 00 00    	cmp    $0xfe,%edx
  20456c:	75 1a                	jne    204588 <print_text_marker+0x158>
  20456e:	be 3c 20 20 00       	mov    $0x20203c,%esi
  204573:	4c 89 e2             	mov    %r12,%rdx
  204576:	31 c0                	xor    %eax,%eax
  204578:	e8 73 c5 01 00       	callq  220af0 <fprintf@plt>
  20457d:	4d 85 e4             	test   %r12,%r12
  204580:	0f 8f ea fe ff ff    	jg     204470 <print_text_marker+0x40>
  204586:	eb 1e                	jmp    2045a6 <print_text_marker+0x176>
  204588:	81 c2 20 ff ff ff    	add    $0xffffff20,%edx
  20458e:	be f9 22 20 00       	mov    $0x2022f9,%esi
  204593:	4c 89 e1             	mov    %r12,%rcx
  204596:	31 c0                	xor    %eax,%eax
  204598:	e8 53 c5 01 00       	callq  220af0 <fprintf@plt>
  20459d:	4d 85 e4             	test   %r12,%r12
  2045a0:	0f 8f ca fe ff ff    	jg     204470 <print_text_marker+0x40>
  2045a6:	45 85 ff             	test   %r15d,%r15d
  2045a9:	7f 0e                	jg     2045b9 <print_text_marker+0x189>
  2045ab:	b8 01 00 00 00       	mov    $0x1,%eax
  2045b0:	5b                   	pop    %rbx
  2045b1:	41 5c                	pop    %r12
  2045b3:	41 5e                	pop    %r14
  2045b5:	41 5f                	pop    %r15
  2045b7:	5d                   	pop    %rbp
  2045b8:	c3                   	retq   
  2045b9:	48 8b 35 40 db 01 00 	mov    0x1db40(%rip),%rsi        # 222100 <stderr>
  2045c0:	bf 0a 00 00 00       	mov    $0xa,%edi
  2045c5:	e8 76 c5 01 00       	callq  220b40 <fputc@plt>
  2045ca:	eb df                	jmp    2045ab <print_text_marker+0x17b>
  2045cc:	cc                   	int3   
  2045cd:	cc                   	int3   
  2045ce:	cc                   	int3   
  2045cf:	cc                   	int3   

00000000002045d0 <parse_switches>:
  2045d0:	55                   	push   %rbp
  2045d1:	41 57                	push   %r15
  2045d3:	41 56                	push   %r14
  2045d5:	41 55                	push   %r13
  2045d7:	41 54                	push   %r12
  2045d9:	53                   	push   %rbx
  2045da:	48 83 ec 38          	sub    $0x38,%rsp
  2045de:	89 4c 24 18          	mov    %ecx,0x18(%rsp)
  2045e2:	c7 05 0c db 01 00 03 	movl   $0x3,0x1db0c(%rip)        # 2220f8 <requested_fmt>
  2045e9:	00 00 00 
  2045ec:	48 c7 05 f9 da 01 00 	movq   $0x0,0x1daf9(%rip)        # 2220f0 <outfilename>
  2045f3:	00 00 00 00 
  2045f7:	48 8b 07             	mov    (%rdi),%rax
  2045fa:	c7 40 7c 00 00 00 00 	movl   $0x0,0x7c(%rax)
  204601:	bb 01 00 00 00       	mov    $0x1,%ebx
  204606:	83 fe 02             	cmp    $0x2,%esi
  204609:	0f 8c a2 05 00 00    	jl     204bb1 <parse_switches+0x5e1>
  20460f:	49 89 d4             	mov    %rdx,%r12
  204612:	89 f5                	mov    %esi,%ebp
  204614:	49 89 ff             	mov    %rdi,%r15
  204617:	48 8d 47 44          	lea    0x44(%rdi),%rax
  20461b:	48 89 44 24 30       	mov    %rax,0x30(%rsp)
  204620:	48 8d 47 48          	lea    0x48(%rdi),%rax
  204624:	48 89 44 24 28       	mov    %rax,0x28(%rsp)
  204629:	bb 01 00 00 00       	mov    $0x1,%ebx
  20462e:	4c 8d 6c 24 1c       	lea    0x1c(%rsp),%r13
  204633:	eb 3a                	jmp    20466f <parse_switches+0x9f>
  204635:	90                   	nop
  204636:	90                   	nop
  204637:	90                   	nop
  204638:	90                   	nop
  204639:	90                   	nop
  20463a:	90                   	nop
  20463b:	90                   	nop
  20463c:	90                   	nop
  20463d:	90                   	nop
  20463e:	90                   	nop
  20463f:	90                   	nop
  204640:	49 83 c6 01          	add    $0x1,%r14
  204644:	be a7 0f 20 00       	mov    $0x200fa7,%esi
  204649:	4c 89 f7             	mov    %r14,%rdi
  20464c:	ba 01 00 00 00       	mov    $0x1,%edx
  204651:	e8 fa 5b 00 00       	callq  20a250 <keymatch>
  204656:	85 c0                	test   %eax,%eax
  204658:	74 37                	je     204691 <parse_switches+0xc1>
  20465a:	c7 05 94 da 01 00 00 	movl   $0x0,0x1da94(%rip)        # 2220f8 <requested_fmt>
  204661:	00 00 00 
  204664:	83 c3 01             	add    $0x1,%ebx
  204667:	39 eb                	cmp    %ebp,%ebx
  204669:	0f 8d 42 05 00 00    	jge    204bb1 <parse_switches+0x5e1>
  20466f:	48 63 c3             	movslq %ebx,%rax
  204672:	4d 8b 34 c4          	mov    (%r12,%rax,8),%r14
  204676:	41 80 3e 2d          	cmpb   $0x2d,(%r14)
  20467a:	74 c4                	je     204640 <parse_switches+0x70>
  20467c:	85 db                	test   %ebx,%ebx
  20467e:	0f 8f 2d 05 00 00    	jg     204bb1 <parse_switches+0x5e1>
  204684:	48 c7 05 61 da 01 00 	movq   $0x0,0x1da61(%rip)        # 2220f0 <outfilename>
  20468b:	00 00 00 00 
  20468f:	eb d3                	jmp    204664 <parse_switches+0x94>
  204691:	be a3 24 20 00       	mov    $0x2024a3,%esi
  204696:	4c 89 f7             	mov    %r14,%rdi
  204699:	ba 01 00 00 00       	mov    $0x1,%edx
  20469e:	e8 ad 5b 00 00       	callq  20a250 <keymatch>
  2046a3:	85 c0                	test   %eax,%eax
  2046a5:	75 42                	jne    2046e9 <parse_switches+0x119>
  2046a7:	be 6d 1e 20 00       	mov    $0x201e6d,%esi
  2046ac:	4c 89 f7             	mov    %r14,%rdi
  2046af:	ba 01 00 00 00       	mov    $0x1,%edx
  2046b4:	e8 97 5b 00 00       	callq  20a250 <keymatch>
  2046b9:	85 c0                	test   %eax,%eax
  2046bb:	75 2c                	jne    2046e9 <parse_switches+0x119>
  2046bd:	be 81 21 20 00       	mov    $0x202181,%esi
  2046c2:	4c 89 f7             	mov    %r14,%rdi
  2046c5:	ba 01 00 00 00       	mov    $0x1,%edx
  2046ca:	e8 81 5b 00 00       	callq  20a250 <keymatch>
  2046cf:	85 c0                	test   %eax,%eax
  2046d1:	75 16                	jne    2046e9 <parse_switches+0x119>
  2046d3:	be aa 24 20 00       	mov    $0x2024aa,%esi
  2046d8:	4c 89 f7             	mov    %r14,%rdi
  2046db:	ba 01 00 00 00       	mov    $0x1,%edx
  2046e0:	e8 6b 5b 00 00       	callq  20a250 <keymatch>
  2046e5:	85 c0                	test   %eax,%eax
  2046e7:	74 3f                	je     204728 <parse_switches+0x158>
  2046e9:	83 c3 01             	add    $0x1,%ebx
  2046ec:	39 eb                	cmp    %ebp,%ebx
  2046ee:	0f 8d ce 04 00 00    	jge    204bc2 <parse_switches+0x5f2>
  2046f4:	48 63 c3             	movslq %ebx,%rax
  2046f7:	49 8b 3c c4          	mov    (%r12,%rax,8),%rdi
  2046fb:	be a4 0d 20 00       	mov    $0x200da4,%esi
  204700:	4c 89 ea             	mov    %r13,%rdx
  204703:	31 c0                	xor    %eax,%eax
  204705:	e8 56 c4 01 00       	callq  220b60 <__isoc99_sscanf@plt>
  20470a:	83 f8 01             	cmp    $0x1,%eax
  20470d:	0f 85 af 04 00 00    	jne    204bc2 <parse_switches+0x5f2>
  204713:	8b 44 24 1c          	mov    0x1c(%rsp),%eax
  204717:	41 89 47 78          	mov    %eax,0x78(%r15)
  20471b:	41 c7 47 6c 01 00 00 	movl   $0x1,0x6c(%r15)
  204722:	00 
  204723:	e9 3c ff ff ff       	jmpq   204664 <parse_switches+0x94>
  204728:	be 7a 20 20 00       	mov    $0x20207a,%esi
  20472d:	4c 89 f7             	mov    %r14,%rdi
  204730:	ba 02 00 00 00       	mov    $0x2,%edx
  204735:	e8 16 5b 00 00       	callq  20a250 <keymatch>
  20473a:	85 c0                	test   %eax,%eax
  20473c:	74 35                	je     204773 <parse_switches+0x1a3>
  20473e:	83 c3 01             	add    $0x1,%ebx
  204741:	39 eb                	cmp    %ebp,%ebx
  204743:	0f 8d 79 04 00 00    	jge    204bc2 <parse_switches+0x5f2>
  204749:	48 63 c3             	movslq %ebx,%rax
  20474c:	4d 8b 34 c4          	mov    (%r12,%rax,8),%r14
  204750:	be d0 16 20 00       	mov    $0x2016d0,%esi
  204755:	4c 89 f7             	mov    %r14,%rdi
  204758:	ba 01 00 00 00       	mov    $0x1,%edx
  20475d:	e8 ee 5a 00 00       	callq  20a250 <keymatch>
  204762:	85 c0                	test   %eax,%eax
  204764:	74 58                	je     2047be <parse_switches+0x1ee>
  204766:	41 c7 47 60 00 00 00 	movl   $0x0,0x60(%r15)
  20476d:	00 
  20476e:	e9 f1 fe ff ff       	jmpq   204664 <parse_switches+0x94>
  204773:	be c5 29 20 00       	mov    $0x2029c5,%esi
  204778:	4c 89 f7             	mov    %r14,%rdi
  20477b:	ba 02 00 00 00       	mov    $0x2,%edx
  204780:	e8 cb 5a 00 00       	callq  20a250 <keymatch>
  204785:	85 c0                	test   %eax,%eax
  204787:	74 58                	je     2047e1 <parse_switches+0x211>
  204789:	83 c3 01             	add    $0x1,%ebx
  20478c:	39 eb                	cmp    %ebp,%ebx
  20478e:	0f 8d 2e 04 00 00    	jge    204bc2 <parse_switches+0x5f2>
  204794:	48 63 c3             	movslq %ebx,%rax
  204797:	4d 8b 34 c4          	mov    (%r12,%rax,8),%r14
  20479b:	be bc 19 20 00       	mov    $0x2019bc,%esi
  2047a0:	4c 89 f7             	mov    %r14,%rdi
  2047a3:	ba 02 00 00 00       	mov    $0x2,%edx
  2047a8:	e8 a3 5a 00 00       	callq  20a250 <keymatch>
  2047ad:	85 c0                	test   %eax,%eax
  2047af:	74 79                	je     20482a <parse_switches+0x25a>
  2047b1:	41 c7 47 70 02 00 00 	movl   $0x2,0x70(%r15)
  2047b8:	00 
  2047b9:	e9 a6 fe ff ff       	jmpq   204664 <parse_switches+0x94>
  2047be:	be 6c 15 20 00       	mov    $0x20156c,%esi
  2047c3:	4c 89 f7             	mov    %r14,%rdi
  2047c6:	ba 02 00 00 00       	mov    $0x2,%edx
  2047cb:	e8 80 5a 00 00       	callq  20a250 <keymatch>
  2047d0:	85 c0                	test   %eax,%eax
  2047d2:	74 79                	je     20484d <parse_switches+0x27d>
  2047d4:	41 c7 47 60 01 00 00 	movl   $0x1,0x60(%r15)
  2047db:	00 
  2047dc:	e9 83 fe ff ff       	jmpq   204664 <parse_switches+0x94>
  2047e1:	be 88 1a 20 00       	mov    $0x201a88,%esi
  2047e6:	4c 89 f7             	mov    %r14,%rdi
  2047e9:	ba 01 00 00 00       	mov    $0x1,%edx
  2047ee:	e8 5d 5a 00 00       	callq  20a250 <keymatch>
  2047f3:	85 c0                	test   %eax,%eax
  2047f5:	75 1a                	jne    204811 <parse_switches+0x241>
  2047f7:	be 61 11 20 00       	mov    $0x201161,%esi
  2047fc:	4c 89 f7             	mov    %r14,%rdi
  2047ff:	ba 01 00 00 00       	mov    $0x1,%edx
  204804:	e8 47 5a 00 00       	callq  20a250 <keymatch>
  204809:	85 c0                	test   %eax,%eax
  20480b:	0f 84 8a 00 00 00    	je     20489b <parse_switches+0x2cb>
  204811:	80 3d e4 d8 01 00 00 	cmpb   $0x0,0x1d8e4(%rip)        # 2220fc <parse_switches.printed_version>
  204818:	0f 84 dc 00 00 00    	je     2048fa <parse_switches+0x32a>
  20481e:	49 8b 07             	mov    (%r15),%rax
  204821:	83 40 7c 01          	addl   $0x1,0x7c(%rax)
  204825:	e9 3a fe ff ff       	jmpq   204664 <parse_switches+0x94>
  20482a:	be 7f 14 20 00       	mov    $0x20147f,%esi
  20482f:	4c 89 f7             	mov    %r14,%rdi
  204832:	ba 02 00 00 00       	mov    $0x2,%edx
  204837:	e8 14 5a 00 00       	callq  20a250 <keymatch>
  20483c:	85 c0                	test   %eax,%eax
  20483e:	74 34                	je     204874 <parse_switches+0x2a4>
  204840:	41 c7 47 70 00 00 00 	movl   $0x0,0x70(%r15)
  204847:	00 
  204848:	e9 17 fe ff ff       	jmpq   204664 <parse_switches+0x94>
  20484d:	be d7 25 20 00       	mov    $0x2025d7,%esi
  204852:	4c 89 f7             	mov    %r14,%rdi
  204855:	ba 02 00 00 00       	mov    $0x2,%edx
  20485a:	e8 f1 59 00 00       	callq  20a250 <keymatch>
  20485f:	85 c0                	test   %eax,%eax
  204861:	0f 84 5b 03 00 00    	je     204bc2 <parse_switches+0x5f2>
  204867:	41 c7 47 60 02 00 00 	movl   $0x2,0x60(%r15)
  20486e:	00 
  20486f:	e9 f0 fd ff ff       	jmpq   204664 <parse_switches+0x94>
  204874:	be 43 1b 20 00       	mov    $0x201b43,%esi
  204879:	4c 89 f7             	mov    %r14,%rdi
  20487c:	ba 02 00 00 00       	mov    $0x2,%edx
  204881:	e8 ca 59 00 00       	callq  20a250 <keymatch>
  204886:	85 c0                	test   %eax,%eax
  204888:	0f 84 34 03 00 00    	je     204bc2 <parse_switches+0x5f2>
  20488e:	41 c7 47 70 01 00 00 	movl   $0x1,0x70(%r15)
  204895:	00 
  204896:	e9 c9 fd ff ff       	jmpq   204664 <parse_switches+0x94>
  20489b:	be 6c 15 20 00       	mov    $0x20156c,%esi
  2048a0:	4c 89 f7             	mov    %r14,%rdi
  2048a3:	ba 01 00 00 00       	mov    $0x1,%edx
  2048a8:	e8 a3 59 00 00       	callq  20a250 <keymatch>
  2048ad:	85 c0                	test   %eax,%eax
  2048af:	74 24                	je     2048d5 <parse_switches+0x305>
  2048b1:	49 c7 47 70 01 00 00 	movq   $0x1,0x70(%r15)
  2048b8:	00 
  2048b9:	41 83 7f 6c 00       	cmpl   $0x0,0x6c(%r15)
  2048be:	75 08                	jne    2048c8 <parse_switches+0x2f8>
  2048c0:	41 c7 47 78 d8 00 00 	movl   $0xd8,0x78(%r15)
  2048c7:	00 
  2048c8:	49 c7 47 60 01 00 00 	movq   $0x1,0x60(%r15)
  2048cf:	00 
  2048d0:	e9 8f fd ff ff       	jmpq   204664 <parse_switches+0x94>
  2048d5:	be d4 16 20 00       	mov    $0x2016d4,%esi
  2048da:	4c 89 f7             	mov    %r14,%rdi
  2048dd:	ba 01 00 00 00       	mov    $0x1,%edx
  2048e2:	e8 69 59 00 00       	callq  20a250 <keymatch>
  2048e7:	85 c0                	test   %eax,%eax
  2048e9:	74 38                	je     204923 <parse_switches+0x353>
  2048eb:	c7 05 03 d8 01 00 01 	movl   $0x1,0x1d803(%rip)        # 2220f8 <requested_fmt>
  2048f2:	00 00 00 
  2048f5:	e9 6a fd ff ff       	jmpq   204664 <parse_switches+0x94>
  2048fa:	48 8b 3d ff d7 01 00 	mov    0x1d7ff(%rip),%rdi        # 222100 <stderr>
  204901:	be 71 15 20 00       	mov    $0x201571,%esi
  204906:	ba 0c 29 20 00       	mov    $0x20290c,%edx
  20490b:	b9 46 13 20 00       	mov    $0x201346,%ecx
  204910:	31 c0                	xor    %eax,%eax
  204912:	e8 d9 c1 01 00       	callq  220af0 <fprintf@plt>
  204917:	c6 05 de d7 01 00 01 	movb   $0x1,0x1d7de(%rip)        # 2220fc <parse_switches.printed_version>
  20491e:	e9 fb fe ff ff       	jmpq   20481e <parse_switches+0x24e>
  204923:	be ac 28 20 00       	mov    $0x2028ac,%esi
  204928:	4c 89 f7             	mov    %r14,%rdi
  20492b:	ba 02 00 00 00       	mov    $0x2,%edx
  204930:	e8 1b 59 00 00       	callq  20a250 <keymatch>
  204935:	85 c0                	test   %eax,%eax
  204937:	75 16                	jne    20494f <parse_switches+0x37f>
  204939:	be 41 1f 20 00       	mov    $0x201f41,%esi
  20493e:	4c 89 f7             	mov    %r14,%rdi
  204941:	ba 02 00 00 00       	mov    $0x2,%edx
  204946:	e8 05 59 00 00       	callq  20a250 <keymatch>
  20494b:	85 c0                	test   %eax,%eax
  20494d:	74 0d                	je     20495c <parse_switches+0x38c>
  20494f:	41 c7 47 40 01 00 00 	movl   $0x1,0x40(%r15)
  204956:	00 
  204957:	e9 08 fd ff ff       	jmpq   204664 <parse_switches+0x94>
  20495c:	be 4b 1f 20 00       	mov    $0x201f4b,%esi
  204961:	4c 89 f7             	mov    %r14,%rdi
  204964:	ba 03 00 00 00       	mov    $0x3,%edx
  204969:	e8 e2 58 00 00       	callq  20a250 <keymatch>
  20496e:	85 c0                	test   %eax,%eax
  204970:	74 58                	je     2049ca <parse_switches+0x3fa>
  204972:	83 c3 01             	add    $0x1,%ebx
  204975:	39 eb                	cmp    %ebp,%ebx
  204977:	0f 8d 45 02 00 00    	jge    204bc2 <parse_switches+0x5f2>
  20497d:	83 7c 24 18 00       	cmpl   $0x0,0x18(%rsp)
  204982:	0f 84 dc fc ff ff    	je     204664 <parse_switches+0x94>
  204988:	48 63 c3             	movslq %ebx,%rax
  20498b:	48 89 44 24 20       	mov    %rax,0x20(%rsp)
  204990:	49 8b 3c c4          	mov    (%r12,%rax,8),%rdi
  204994:	be 8a 19 20 00       	mov    $0x20198a,%esi
  204999:	e8 42 c1 01 00       	callq  220ae0 <fopen@plt>
  20499e:	48 85 c0             	test   %rax,%rax
  2049a1:	0f 84 20 02 00 00    	je     204bc7 <parse_switches+0x5f7>
  2049a7:	49 89 c6             	mov    %rax,%r14
  2049aa:	4c 89 ff             	mov    %r15,%rdi
  2049ad:	48 89 c6             	mov    %rax,%rsi
  2049b0:	e8 9b bb 01 00       	callq  220550 <read_color_map>
  2049b5:	4c 89 f7             	mov    %r14,%rdi
  2049b8:	e8 53 c1 01 00       	callq  220b10 <fclose@plt>
  2049bd:	41 c7 47 6c 01 00 00 	movl   $0x1,0x6c(%r15)
  2049c4:	00 
  2049c5:	e9 9a fc ff ff       	jmpq   204664 <parse_switches+0x94>
  2049ca:	be 8e 1a 20 00       	mov    $0x201a8e,%esi
  2049cf:	4c 89 f7             	mov    %r14,%rdi
  2049d2:	ba 03 00 00 00       	mov    $0x3,%edx
  2049d7:	e8 74 58 00 00       	callq  20a250 <keymatch>
  2049dc:	85 c0                	test   %eax,%eax
  2049de:	74 50                	je     204a30 <parse_switches+0x460>
  2049e0:	c6 44 24 0f 78       	movb   $0x78,0xf(%rsp)
  2049e5:	83 c3 01             	add    $0x1,%ebx
  2049e8:	39 eb                	cmp    %ebp,%ebx
  2049ea:	0f 8d d2 01 00 00    	jge    204bc2 <parse_switches+0x5f2>
  2049f0:	48 63 c3             	movslq %ebx,%rax
  2049f3:	49 8b 3c c4          	mov    (%r12,%rax,8),%rdi
  2049f7:	be f9 1f 20 00       	mov    $0x201ff9,%esi
  2049fc:	48 8d 54 24 10       	lea    0x10(%rsp),%rdx
  204a01:	48 8d 4c 24 0f       	lea    0xf(%rsp),%rcx
  204a06:	31 c0                	xor    %eax,%eax
  204a08:	e8 53 c1 01 00       	callq  220b60 <__isoc99_sscanf@plt>
  204a0d:	85 c0                	test   %eax,%eax
  204a0f:	0f 8e ad 01 00 00    	jle    204bc2 <parse_switches+0x5f2>
  204a15:	0f b6 44 24 0f       	movzbl 0xf(%rsp),%eax
  204a1a:	0c 20                	or     $0x20,%al
  204a1c:	3c 6d                	cmp    $0x6d,%al
  204a1e:	75 33                	jne    204a53 <parse_switches+0x483>
  204a20:	48 69 44 24 10 e8 03 	imul   $0x3e8,0x10(%rsp),%rax
  204a27:	00 00 
  204a29:	48 89 44 24 10       	mov    %rax,0x10(%rsp)
  204a2e:	eb 28                	jmp    204a58 <parse_switches+0x488>
  204a30:	be ab 0f 20 00       	mov    $0x200fab,%esi
  204a35:	4c 89 f7             	mov    %r14,%rdi
  204a38:	ba 03 00 00 00       	mov    $0x3,%edx
  204a3d:	e8 0e 58 00 00       	callq  20a250 <keymatch>
  204a42:	85 c0                	test   %eax,%eax
  204a44:	74 26                	je     204a6c <parse_switches+0x49c>
  204a46:	41 c7 47 64 00 00 00 	movl   $0x0,0x64(%r15)
  204a4d:	00 
  204a4e:	e9 11 fc ff ff       	jmpq   204664 <parse_switches+0x94>
  204a53:	48 8b 44 24 10       	mov    0x10(%rsp),%rax
  204a58:	48 69 c0 e8 03 00 00 	imul   $0x3e8,%rax,%rax
  204a5f:	49 8b 4f 08          	mov    0x8(%r15),%rcx
  204a63:	48 89 41 58          	mov    %rax,0x58(%rcx)
  204a67:	e9 f8 fb ff ff       	jmpq   204664 <parse_switches+0x94>
  204a6c:	be 3f 27 20 00       	mov    $0x20273f,%esi
  204a71:	4c 89 f7             	mov    %r14,%rdi
  204a74:	ba 03 00 00 00       	mov    $0x3,%edx
  204a79:	e8 d2 57 00 00       	callq  20a250 <keymatch>
  204a7e:	85 c0                	test   %eax,%eax
  204a80:	74 0d                	je     204a8f <parse_switches+0x4bf>
  204a82:	41 c7 47 74 00 00 00 	movl   $0x0,0x74(%r15)
  204a89:	00 
  204a8a:	e9 d5 fb ff ff       	jmpq   204664 <parse_switches+0x94>
  204a8f:	be 7e 20 20 00       	mov    $0x20207e,%esi
  204a94:	4c 89 f7             	mov    %r14,%rdi
  204a97:	ba 03 00 00 00       	mov    $0x3,%edx
  204a9c:	e8 af 57 00 00       	callq  20a250 <keymatch>
  204aa1:	85 c0                	test   %eax,%eax
  204aa3:	74 0f                	je     204ab4 <parse_switches+0x4e4>
  204aa5:	c7 05 49 d6 01 00 02 	movl   $0x2,0x1d649(%rip)        # 2220f8 <requested_fmt>
  204aac:	00 00 00 
  204aaf:	e9 b0 fb ff ff       	jmpq   204664 <parse_switches+0x94>
  204ab4:	be b4 0f 20 00       	mov    $0x200fb4,%esi
  204ab9:	4c 89 f7             	mov    %r14,%rdi
  204abc:	ba 04 00 00 00       	mov    $0x4,%edx
  204ac1:	e8 8a 57 00 00       	callq  20a250 <keymatch>
  204ac6:	85 c0                	test   %eax,%eax
  204ac8:	74 1e                	je     204ae8 <parse_switches+0x518>
  204aca:	83 c3 01             	add    $0x1,%ebx
  204acd:	39 eb                	cmp    %ebp,%ebx
  204acf:	0f 8d ed 00 00 00    	jge    204bc2 <parse_switches+0x5f2>
  204ad5:	48 63 c3             	movslq %ebx,%rax
  204ad8:	49 8b 04 c4          	mov    (%r12,%rax,8),%rax
  204adc:	48 89 05 0d d6 01 00 	mov    %rax,0x1d60d(%rip)        # 2220f0 <outfilename>
  204ae3:	e9 7c fb ff ff       	jmpq   204664 <parse_switches+0x94>
  204ae8:	be 47 27 20 00       	mov    $0x202747,%esi
  204aed:	4c 89 f7             	mov    %r14,%rdi
  204af0:	ba 01 00 00 00       	mov    $0x1,%edx
  204af5:	e8 56 57 00 00       	callq  20a250 <keymatch>
  204afa:	85 c0                	test   %eax,%eax
  204afc:	75 16                	jne    204b14 <parse_switches+0x544>
  204afe:	be 1b 22 20 00       	mov    $0x20221b,%esi
  204b03:	4c 89 f7             	mov    %r14,%rdi
  204b06:	ba 01 00 00 00       	mov    $0x1,%edx
  204b0b:	e8 40 57 00 00       	callq  20a250 <keymatch>
  204b10:	85 c0                	test   %eax,%eax
  204b12:	74 0f                	je     204b23 <parse_switches+0x553>
  204b14:	c7 05 da d5 01 00 03 	movl   $0x3,0x1d5da(%rip)        # 2220f8 <requested_fmt>
  204b1b:	00 00 00 
  204b1e:	e9 41 fb ff ff       	jmpq   204664 <parse_switches+0x94>
  204b23:	be b3 24 20 00       	mov    $0x2024b3,%esi
  204b28:	4c 89 f7             	mov    %r14,%rdi
  204b2b:	ba 01 00 00 00       	mov    $0x1,%edx
  204b30:	e8 1b 57 00 00       	callq  20a250 <keymatch>
  204b35:	85 c0                	test   %eax,%eax
  204b37:	74 0f                	je     204b48 <parse_switches+0x578>
  204b39:	c7 05 b5 d5 01 00 04 	movl   $0x4,0x1d5b5(%rip)        # 2220f8 <requested_fmt>
  204b40:	00 00 00 
  204b43:	e9 1c fb ff ff       	jmpq   204664 <parse_switches+0x94>
  204b48:	be 81 0e 20 00       	mov    $0x200e81,%esi
  204b4d:	4c 89 f7             	mov    %r14,%rdi
  204b50:	ba 01 00 00 00       	mov    $0x1,%edx
  204b55:	e8 f6 56 00 00       	callq  20a250 <keymatch>
  204b5a:	85 c0                	test   %eax,%eax
  204b5c:	74 2e                	je     204b8c <parse_switches+0x5bc>
  204b5e:	83 c3 01             	add    $0x1,%ebx
  204b61:	39 eb                	cmp    %ebp,%ebx
  204b63:	7d 5d                	jge    204bc2 <parse_switches+0x5f2>
  204b65:	48 63 c3             	movslq %ebx,%rax
  204b68:	49 8b 3c c4          	mov    (%r12,%rax,8),%rdi
  204b6c:	be bc 0f 20 00       	mov    $0x200fbc,%esi
  204b71:	48 8b 54 24 30       	mov    0x30(%rsp),%rdx
  204b76:	48 8b 4c 24 28       	mov    0x28(%rsp),%rcx
  204b7b:	31 c0                	xor    %eax,%eax
  204b7d:	e8 de bf 01 00       	callq  220b60 <__isoc99_sscanf@plt>
  204b82:	85 c0                	test   %eax,%eax
  204b84:	0f 8f da fa ff ff    	jg     204664 <parse_switches+0x94>
  204b8a:	eb 36                	jmp    204bc2 <parse_switches+0x5f2>
  204b8c:	be 75 1e 20 00       	mov    $0x201e75,%esi
  204b91:	4c 89 f7             	mov    %r14,%rdi
  204b94:	ba 01 00 00 00       	mov    $0x1,%edx
  204b99:	e8 b2 56 00 00       	callq  20a250 <keymatch>
  204b9e:	85 c0                	test   %eax,%eax
  204ba0:	74 20                	je     204bc2 <parse_switches+0x5f2>
  204ba2:	c7 05 4c d5 01 00 05 	movl   $0x5,0x1d54c(%rip)        # 2220f8 <requested_fmt>
  204ba9:	00 00 00 
  204bac:	e9 b3 fa ff ff       	jmpq   204664 <parse_switches+0x94>
  204bb1:	89 d8                	mov    %ebx,%eax
  204bb3:	48 83 c4 38          	add    $0x38,%rsp
  204bb7:	5b                   	pop    %rbx
  204bb8:	41 5c                	pop    %r12
  204bba:	41 5d                	pop    %r13
  204bbc:	41 5e                	pop    %r14
  204bbe:	41 5f                	pop    %r15
  204bc0:	5d                   	pop    %rbp
  204bc1:	c3                   	retq   
  204bc2:	e8 39 00 00 00       	callq  204c00 <usage>
  204bc7:	48 8b 3d 32 d5 01 00 	mov    0x1d532(%rip),%rdi        # 222100 <stderr>
  204bce:	48 8b 15 13 d5 01 00 	mov    0x1d513(%rip),%rdx        # 2220e8 <progname>
  204bd5:	48 8b 44 24 20       	mov    0x20(%rsp),%rax
  204bda:	49 8b 0c c4          	mov    (%r12,%rax,8),%rcx
  204bde:	be f1 26 20 00       	mov    $0x2026f1,%esi
  204be3:	31 c0                	xor    %eax,%eax
  204be5:	e8 06 bf 01 00       	callq  220af0 <fprintf@plt>
  204bea:	bf 01 00 00 00       	mov    $0x1,%edi
  204bef:	e8 0c bf 01 00       	callq  220b00 <exit@plt>
  204bf4:	cc                   	int3   
  204bf5:	cc                   	int3   
  204bf6:	cc                   	int3   
  204bf7:	cc                   	int3   
  204bf8:	cc                   	int3   
  204bf9:	cc                   	int3   
  204bfa:	cc                   	int3   
  204bfb:	cc                   	int3   
  204bfc:	cc                   	int3   
  204bfd:	cc                   	int3   
  204bfe:	cc                   	int3   
  204bff:	cc                   	int3   

0000000000204c00 <usage>:
  204c00:	50                   	push   %rax
  204c01:	48 8b 3d f8 d4 01 00 	mov    0x1d4f8(%rip),%rdi        # 222100 <stderr>
  204c08:	48 8b 15 d9 d4 01 00 	mov    0x1d4d9(%rip),%rdx        # 2220e8 <progname>
  204c0f:	be 8a 18 20 00       	mov    $0x20188a,%esi
  204c14:	31 c0                	xor    %eax,%eax
  204c16:	e8 d5 be 01 00       	callq  220af0 <fprintf@plt>
  204c1b:	48 8b 0d de d4 01 00 	mov    0x1d4de(%rip),%rcx        # 222100 <stderr>
  204c22:	bf fe 1a 20 00       	mov    $0x201afe,%edi
  204c27:	be 0c 00 00 00       	mov    $0xc,%esi
  204c2c:	ba 01 00 00 00       	mov    $0x1,%edx
  204c31:	e8 1a bf 01 00       	callq  220b50 <fwrite@plt>
  204c36:	48 8b 0d c3 d4 01 00 	mov    0x1d4c3(%rip),%rcx        # 222100 <stderr>
  204c3d:	bf ba 1c 20 00       	mov    $0x201cba,%edi
  204c42:	be 25 00 00 00       	mov    $0x25,%esi
  204c47:	ba 01 00 00 00       	mov    $0x1,%edx
  204c4c:	e8 ff be 01 00       	callq  220b50 <fwrite@plt>
  204c51:	48 8b 0d a8 d4 01 00 	mov    0x1d4a8(%rip),%rcx        # 222100 <stderr>
  204c58:	bf 0b 1b 20 00       	mov    $0x201b0b,%edi
  204c5d:	be 37 00 00 00       	mov    $0x37,%esi
  204c62:	ba 01 00 00 00       	mov    $0x1,%edx
  204c67:	e8 e4 be 01 00       	callq  220b50 <fwrite@plt>
  204c6c:	48 8b 0d 8d d4 01 00 	mov    0x1d48d(%rip),%rcx        # 222100 <stderr>
  204c73:	bf fe 0d 20 00       	mov    $0x200dfe,%edi
  204c78:	be 2e 00 00 00       	mov    $0x2e,%esi
  204c7d:	ba 01 00 00 00       	mov    $0x1,%edx
  204c82:	e8 c9 be 01 00       	callq  220b50 <fwrite@plt>
  204c87:	48 8b 0d 72 d4 01 00 	mov    0x1d472(%rip),%rcx        # 222100 <stderr>
  204c8e:	bf 2d 0e 20 00       	mov    $0x200e2d,%edi
  204c93:	be 28 00 00 00       	mov    $0x28,%esi
  204c98:	ba 01 00 00 00       	mov    $0x1,%edx
  204c9d:	e8 ae be 01 00       	callq  220b50 <fwrite@plt>
  204ca2:	48 8b 0d 57 d4 01 00 	mov    0x1d457(%rip),%rcx        # 222100 <stderr>
  204ca9:	bf 48 29 20 00       	mov    $0x202948,%edi
  204cae:	be 3d 00 00 00       	mov    $0x3d,%esi
  204cb3:	ba 01 00 00 00       	mov    $0x1,%edx
  204cb8:	e8 93 be 01 00       	callq  220b50 <fwrite@plt>
  204cbd:	48 8b 3d 3c d4 01 00 	mov    0x1d43c(%rip),%rdi        # 222100 <stderr>
  204cc4:	be ff 1f 20 00       	mov    $0x201fff,%esi
  204cc9:	ba d6 25 20 00       	mov    $0x2025d6,%edx
  204cce:	31 c0                	xor    %eax,%eax
  204cd0:	e8 1b be 01 00       	callq  220af0 <fprintf@plt>
  204cd5:	48 8b 3d 24 d4 01 00 	mov    0x1d424(%rip),%rdi        # 222100 <stderr>
  204cdc:	be 9c 12 20 00       	mov    $0x20129c,%esi
  204ce1:	ba d6 25 20 00       	mov    $0x2025d6,%edx
  204ce6:	31 c0                	xor    %eax,%eax
  204ce8:	e8 03 be 01 00       	callq  220af0 <fprintf@plt>
  204ced:	48 8b 3d 0c d4 01 00 	mov    0x1d40c(%rip),%rdi        # 222100 <stderr>
  204cf4:	be 45 14 20 00       	mov    $0x201445,%esi
  204cf9:	ba d6 25 20 00       	mov    $0x2025d6,%edx
  204cfe:	31 c0                	xor    %eax,%eax
  204d00:	e8 eb bd 01 00       	callq  220af0 <fprintf@plt>
  204d05:	48 8b 3d f4 d3 01 00 	mov    0x1d3f4(%rip),%rdi        # 222100 <stderr>
  204d0c:	be 04 27 20 00       	mov    $0x202704,%esi
  204d11:	ba 61 15 20 00       	mov    $0x201561,%edx
  204d16:	31 c0                	xor    %eax,%eax
  204d18:	e8 d3 bd 01 00       	callq  220af0 <fprintf@plt>
  204d1d:	48 8b 3d dc d3 01 00 	mov    0x1d3dc(%rip),%rdi        # 222100 <stderr>
  204d24:	be 8d 19 20 00       	mov    $0x20198d,%esi
  204d29:	ba d6 25 20 00       	mov    $0x2025d6,%edx
  204d2e:	31 c0                	xor    %eax,%eax
  204d30:	e8 bb bd 01 00       	callq  220af0 <fprintf@plt>
  204d35:	48 8b 0d c4 d3 01 00 	mov    0x1d3c4(%rip),%rcx        # 222100 <stderr>
  204d3c:	bf 43 11 20 00       	mov    $0x201143,%edi
  204d41:	be 1d 00 00 00       	mov    $0x1d,%esi
  204d46:	ba 01 00 00 00       	mov    $0x1,%edx
  204d4b:	e8 00 be 01 00       	callq  220b50 <fwrite@plt>
  204d50:	48 8b 3d a9 d3 01 00 	mov    0x1d3a9(%rip),%rdi        # 222100 <stderr>
  204d57:	be 56 0e 20 00       	mov    $0x200e56,%esi
  204d5c:	ba 61 15 20 00       	mov    $0x201561,%edx
  204d61:	31 c0                	xor    %eax,%eax
  204d63:	e8 88 bd 01 00       	callq  220af0 <fprintf@plt>
  204d68:	48 8b 3d 91 d3 01 00 	mov    0x1d391(%rip),%rdi        # 222100 <stderr>
  204d6f:	be 6a 24 20 00       	mov    $0x20246a,%esi
  204d74:	ba d6 25 20 00       	mov    $0x2025d6,%edx
  204d79:	31 c0                	xor    %eax,%eax
  204d7b:	e8 70 bd 01 00       	callq  220af0 <fprintf@plt>
  204d80:	48 8b 3d 79 d3 01 00 	mov    0x1d379(%rip),%rdi        # 222100 <stderr>
  204d87:	be 3b 1e 20 00       	mov    $0x201e3b,%esi
  204d8c:	ba d6 25 20 00       	mov    $0x2025d6,%edx
  204d91:	31 c0                	xor    %eax,%eax
  204d93:	e8 58 bd 01 00       	callq  220af0 <fprintf@plt>
  204d98:	48 8b 0d 61 d3 01 00 	mov    0x1d361(%rip),%rcx        # 222100 <stderr>
  204d9f:	bf cb 22 20 00       	mov    $0x2022cb,%edi
  204da4:	be 2d 00 00 00       	mov    $0x2d,%esi
  204da9:	ba 01 00 00 00       	mov    $0x1,%edx
  204dae:	e8 9d bd 01 00       	callq  220b50 <fwrite@plt>
  204db3:	48 8b 0d 46 d3 01 00 	mov    0x1d346(%rip),%rcx        # 222100 <stderr>
  204dba:	bf 52 1a 20 00       	mov    $0x201a52,%edi
  204dbf:	be 35 00 00 00       	mov    $0x35,%esi
  204dc4:	ba 01 00 00 00       	mov    $0x1,%edx
  204dc9:	e8 82 bd 01 00       	callq  220b50 <fwrite@plt>
  204dce:	48 8b 0d 2b d3 01 00 	mov    0x1d32b(%rip),%rcx        # 222100 <stderr>
  204dd5:	bf 86 29 20 00       	mov    $0x202986,%edi
  204dda:	be 3e 00 00 00       	mov    $0x3e,%esi
  204ddf:	ba 01 00 00 00       	mov    $0x1,%edx
  204de4:	e8 67 bd 01 00       	callq  220b50 <fwrite@plt>
  204de9:	48 8b 0d 10 d3 01 00 	mov    0x1d310(%rip),%rcx        # 222100 <stderr>
  204df0:	bf 48 21 20 00       	mov    $0x202148,%edi
  204df5:	be 38 00 00 00       	mov    $0x38,%esi
  204dfa:	ba 01 00 00 00       	mov    $0x1,%edx
  204dff:	e8 4c bd 01 00       	callq  220b50 <fwrite@plt>
  204e04:	48 8b 0d f5 d2 01 00 	mov    0x1d2f5(%rip),%rcx        # 222100 <stderr>
  204e0b:	bf 70 0d 20 00       	mov    $0x200d70,%edi
  204e10:	be 33 00 00 00       	mov    $0x33,%esi
  204e15:	ba 01 00 00 00       	mov    $0x1,%edx
  204e1a:	e8 31 bd 01 00       	callq  220b50 <fwrite@plt>
  204e1f:	48 8b 0d da d2 01 00 	mov    0x1d2da(%rip),%rcx        # 222100 <stderr>
  204e26:	bf fb 1b 20 00       	mov    $0x201bfb,%edi
  204e2b:	be 3d 00 00 00       	mov    $0x3d,%esi
  204e30:	ba 01 00 00 00       	mov    $0x1,%edx
  204e35:	e8 16 bd 01 00       	callq  220b50 <fwrite@plt>
  204e3a:	48 8b 0d bf d2 01 00 	mov    0x1d2bf(%rip),%rcx        # 222100 <stderr>
  204e41:	bf 79 2a 20 00       	mov    $0x202a79,%edi
  204e46:	be 33 00 00 00       	mov    $0x33,%esi
  204e4b:	ba 01 00 00 00       	mov    $0x1,%edx
  204e50:	e8 fb bc 01 00       	callq  220b50 <fwrite@plt>
  204e55:	48 8b 0d a4 d2 01 00 	mov    0x1d2a4(%rip),%rcx        # 222100 <stderr>
  204e5c:	bf 78 0f 20 00       	mov    $0x200f78,%edi
  204e61:	be 2e 00 00 00       	mov    $0x2e,%esi
  204e66:	ba 01 00 00 00       	mov    $0x1,%edx
  204e6b:	e8 e0 bc 01 00       	callq  220b50 <fwrite@plt>
  204e70:	48 8b 0d 89 d2 01 00 	mov    0x1d289(%rip),%rcx        # 222100 <stderr>
  204e77:	bf c9 12 20 00       	mov    $0x2012c9,%edi
  204e7c:	be 2b 00 00 00       	mov    $0x2b,%esi
  204e81:	ba 01 00 00 00       	mov    $0x1,%edx
  204e86:	e8 c5 bc 01 00       	callq  220b50 <fwrite@plt>
  204e8b:	bf 01 00 00 00       	mov    $0x1,%edi
  204e90:	e8 6b bc 01 00       	callq  220b00 <exit@plt>
  204e95:	cc                   	int3   
  204e96:	cc                   	int3   
  204e97:	cc                   	int3   
  204e98:	cc                   	int3   
  204e99:	cc                   	int3   
  204e9a:	cc                   	int3   
  204e9b:	cc                   	int3   
  204e9c:	cc                   	int3   
  204e9d:	cc                   	int3   
  204e9e:	cc                   	int3   
  204e9f:	cc                   	int3   

0000000000204ea0 <jpeg_getc>:
  204ea0:	41 56                	push   %r14
  204ea2:	53                   	push   %rbx
  204ea3:	50                   	push   %rax
  204ea4:	48 8b 5f 28          	mov    0x28(%rdi),%rbx
  204ea8:	48 83 7b 08 00       	cmpq   $0x0,0x8(%rbx)
  204ead:	75 19                	jne    204ec8 <jpeg_getc+0x28>
  204eaf:	49 89 fe             	mov    %rdi,%r14
  204eb2:	ff 53 18             	callq  *0x18(%rbx)
  204eb5:	85 c0                	test   %eax,%eax
  204eb7:	75 0f                	jne    204ec8 <jpeg_getc+0x28>
  204eb9:	49 8b 06             	mov    (%r14),%rax
  204ebc:	c7 40 28 19 00 00 00 	movl   $0x19,0x28(%rax)
  204ec3:	4c 89 f7             	mov    %r14,%rdi
  204ec6:	ff 10                	callq  *(%rax)
  204ec8:	48 83 43 08 ff       	addq   $0xffffffffffffffff,0x8(%rbx)
  204ecd:	48 8b 03             	mov    (%rbx),%rax
  204ed0:	48 8d 48 01          	lea    0x1(%rax),%rcx
  204ed4:	48 89 0b             	mov    %rcx,(%rbx)
  204ed7:	0f b6 00             	movzbl (%rax),%eax
  204eda:	48 83 c4 08          	add    $0x8,%rsp
  204ede:	5b                   	pop    %rbx
  204edf:	41 5e                	pop    %r14
  204ee1:	c3                   	retq   
  204ee2:	cc                   	int3   
  204ee3:	cc                   	int3   
  204ee4:	cc                   	int3   
  204ee5:	cc                   	int3   
  204ee6:	cc                   	int3   
  204ee7:	cc                   	int3   
  204ee8:	cc                   	int3   
  204ee9:	cc                   	int3   
  204eea:	cc                   	int3   
  204eeb:	cc                   	int3   
  204eec:	cc                   	int3   
  204eed:	cc                   	int3   
  204eee:	cc                   	int3   
  204eef:	cc                   	int3   

0000000000204ef0 <jpeg_std_error>:
  204ef0:	48 89 f8             	mov    %rdi,%rax
  204ef3:	48 c7 07 60 4f 20 00 	movq   $0x204f60,(%rdi)
  204efa:	48 c7 47 08 80 4f 20 	movq   $0x204f80,0x8(%rdi)
  204f01:	00 
  204f02:	48 c7 47 10 d0 4f 20 	movq   $0x204fd0,0x10(%rdi)
  204f09:	00 
  204f0a:	48 c7 47 18 10 50 20 	movq   $0x205010,0x18(%rdi)
  204f11:	00 
  204f12:	48 c7 47 20 f0 50 20 	movq   $0x2050f0,0x20(%rdi)
  204f19:	00 
  204f1a:	c7 47 7c 00 00 00 00 	movl   $0x0,0x7c(%rdi)
  204f21:	48 c7 87 80 00 00 00 	movq   $0x0,0x80(%rdi)
  204f28:	00 00 00 00 
  204f2c:	c7 47 28 00 00 00 00 	movl   $0x0,0x28(%rdi)
  204f33:	48 c7 87 88 00 00 00 	movq   $0x202cd0,0x88(%rdi)
  204f3a:	d0 2c 20 00 
  204f3e:	c7 87 90 00 00 00 7e 	movl   $0x7e,0x90(%rdi)
  204f45:	00 00 00 
  204f48:	0f 57 c0             	xorps  %xmm0,%xmm0
  204f4b:	0f 11 87 98 00 00 00 	movups %xmm0,0x98(%rdi)
  204f52:	c3                   	retq   
  204f53:	cc                   	int3   
  204f54:	cc                   	int3   
  204f55:	cc                   	int3   
  204f56:	cc                   	int3   
  204f57:	cc                   	int3   
  204f58:	cc                   	int3   
  204f59:	cc                   	int3   
  204f5a:	cc                   	int3   
  204f5b:	cc                   	int3   
  204f5c:	cc                   	int3   
  204f5d:	cc                   	int3   
  204f5e:	cc                   	int3   
  204f5f:	cc                   	int3   

0000000000204f60 <error_exit>:
  204f60:	53                   	push   %rbx
  204f61:	48 89 fb             	mov    %rdi,%rbx
  204f64:	48 8b 07             	mov    (%rdi),%rax
  204f67:	ff 50 10             	callq  *0x10(%rax)
  204f6a:	48 89 df             	mov    %rbx,%rdi
  204f6d:	e8 de 01 00 00       	callq  205150 <jpeg_destroy>
  204f72:	bf 01 00 00 00       	mov    $0x1,%edi
  204f77:	e8 84 bb 01 00       	callq  220b00 <exit@plt>
  204f7c:	cc                   	int3   
  204f7d:	cc                   	int3   
  204f7e:	cc                   	int3   
  204f7f:	cc                   	int3   

0000000000204f80 <emit_message>:
  204f80:	53                   	push   %rbx
  204f81:	48 8b 0f             	mov    (%rdi),%rcx
  204f84:	85 f6                	test   %esi,%esi
  204f86:	78 07                	js     204f8f <emit_message+0xf>
  204f88:	39 71 7c             	cmp    %esi,0x7c(%rcx)
  204f8b:	7d 31                	jge    204fbe <emit_message+0x3e>
  204f8d:	5b                   	pop    %rbx
  204f8e:	c3                   	retq   
  204f8f:	48 8b 81 80 00 00 00 	mov    0x80(%rcx),%rax
  204f96:	48 85 c0             	test   %rax,%rax
  204f99:	74 06                	je     204fa1 <emit_message+0x21>
  204f9b:	83 79 7c 03          	cmpl   $0x3,0x7c(%rcx)
  204f9f:	7c 10                	jl     204fb1 <emit_message+0x31>
  204fa1:	48 89 cb             	mov    %rcx,%rbx
  204fa4:	ff 51 10             	callq  *0x10(%rcx)
  204fa7:	48 89 d9             	mov    %rbx,%rcx
  204faa:	48 8b 83 80 00 00 00 	mov    0x80(%rbx),%rax
  204fb1:	48 83 c0 01          	add    $0x1,%rax
  204fb5:	48 89 81 80 00 00 00 	mov    %rax,0x80(%rcx)
  204fbc:	5b                   	pop    %rbx
  204fbd:	c3                   	retq   
  204fbe:	5b                   	pop    %rbx
  204fbf:	ff 61 10             	jmpq   *0x10(%rcx)
  204fc2:	cc                   	int3   
  204fc3:	cc                   	int3   
  204fc4:	cc                   	int3   
  204fc5:	cc                   	int3   
  204fc6:	cc                   	int3   
  204fc7:	cc                   	int3   
  204fc8:	cc                   	int3   
  204fc9:	cc                   	int3   
  204fca:	cc                   	int3   
  204fcb:	cc                   	int3   
  204fcc:	cc                   	int3   
  204fcd:	cc                   	int3   
  204fce:	cc                   	int3   
  204fcf:	cc                   	int3   

0000000000204fd0 <output_message>:
  204fd0:	53                   	push   %rbx
  204fd1:	48 81 ec d0 00 00 00 	sub    $0xd0,%rsp
  204fd8:	48 8b 07             	mov    (%rdi),%rax
  204fdb:	48 89 e3             	mov    %rsp,%rbx
  204fde:	48 89 de             	mov    %rbx,%rsi
  204fe1:	ff 50 18             	callq  *0x18(%rax)
  204fe4:	48 8b 3d 15 d1 01 00 	mov    0x1d115(%rip),%rdi        # 222100 <stderr>
  204feb:	be 5c 2a 20 00       	mov    $0x202a5c,%esi
  204ff0:	48 89 da             	mov    %rbx,%rdx
  204ff3:	31 c0                	xor    %eax,%eax
  204ff5:	e8 f6 ba 01 00       	callq  220af0 <fprintf@plt>
  204ffa:	48 81 c4 d0 00 00 00 	add    $0xd0,%rsp
  205001:	5b                   	pop    %rbx
  205002:	c3                   	retq   
  205003:	cc                   	int3   
  205004:	cc                   	int3   
  205005:	cc                   	int3   
  205006:	cc                   	int3   
  205007:	cc                   	int3   
  205008:	cc                   	int3   
  205009:	cc                   	int3   
  20500a:	cc                   	int3   
  20500b:	cc                   	int3   
  20500c:	cc                   	int3   
  20500d:	cc                   	int3   
  20500e:	cc                   	int3   
  20500f:	cc                   	int3   

0000000000205010 <format_message>:
  205010:	41 57                	push   %r15
  205012:	41 56                	push   %r14
  205014:	41 54                	push   %r12
  205016:	53                   	push   %rbx
  205017:	50                   	push   %rax
  205018:	48 8b 17             	mov    (%rdi),%rdx
  20501b:	8b 4a 28             	mov    0x28(%rdx),%ecx
  20501e:	85 c9                	test   %ecx,%ecx
  205020:	7e 08                	jle    20502a <format_message+0x1a>
  205022:	3b 8a 90 00 00 00    	cmp    0x90(%rdx),%ecx
  205028:	7e 20                	jle    20504a <format_message+0x3a>
  20502a:	48 8b 82 98 00 00 00 	mov    0x98(%rdx),%rax
  205031:	48 85 c0             	test   %rax,%rax
  205034:	74 29                	je     20505f <format_message+0x4f>
  205036:	89 cf                	mov    %ecx,%edi
  205038:	2b ba a0 00 00 00    	sub    0xa0(%rdx),%edi
  20503e:	7c 1f                	jl     20505f <format_message+0x4f>
  205040:	3b 8a a4 00 00 00    	cmp    0xa4(%rdx),%ecx
  205046:	7e 0b                	jle    205053 <format_message+0x43>
  205048:	eb 15                	jmp    20505f <format_message+0x4f>
  20504a:	48 8b 82 88 00 00 00 	mov    0x88(%rdx),%rax
  205051:	89 cf                	mov    %ecx,%edi
  205053:	48 63 ff             	movslq %edi,%rdi
  205056:	4c 8b 1c f8          	mov    (%rax,%rdi,8),%r11
  20505a:	4d 85 db             	test   %r11,%r11
  20505d:	75 0d                	jne    20506c <format_message+0x5c>
  20505f:	89 4a 2c             	mov    %ecx,0x2c(%rdx)
  205062:	48 8b 82 88 00 00 00 	mov    0x88(%rdx),%rax
  205069:	4c 8b 18             	mov    (%rax),%r11
  20506c:	4c 89 d9             	mov    %r11,%rcx
  20506f:	90                   	nop
  205070:	0f b6 01             	movzbl (%rcx),%eax
  205073:	84 c0                	test   %al,%al
  205075:	74 29                	je     2050a0 <format_message+0x90>
  205077:	48 83 c1 01          	add    $0x1,%rcx
  20507b:	3c 25                	cmp    $0x25,%al
  20507d:	75 f1                	jne    205070 <format_message+0x60>
  20507f:	80 39 73             	cmpb   $0x73,(%rcx)
  205082:	75 1c                	jne    2050a0 <format_message+0x90>
  205084:	48 83 c2 2c          	add    $0x2c,%rdx
  205088:	48 89 f7             	mov    %rsi,%rdi
  20508b:	4c 89 de             	mov    %r11,%rsi
  20508e:	31 c0                	xor    %eax,%eax
  205090:	48 83 c4 08          	add    $0x8,%rsp
  205094:	5b                   	pop    %rbx
  205095:	41 5c                	pop    %r12
  205097:	41 5e                	pop    %r14
  205099:	41 5f                	pop    %r15
  20509b:	e9 d0 ba 01 00       	jmpq   220b70 <sprintf@plt>
  2050a0:	44 8b 52 2c          	mov    0x2c(%rdx),%r10d
  2050a4:	8b 4a 30             	mov    0x30(%rdx),%ecx
  2050a7:	44 8b 42 34          	mov    0x34(%rdx),%r8d
  2050ab:	44 8b 4a 38          	mov    0x38(%rdx),%r9d
  2050af:	44 8b 72 3c          	mov    0x3c(%rdx),%r14d
  2050b3:	44 8b 7a 40          	mov    0x40(%rdx),%r15d
  2050b7:	44 8b 62 44          	mov    0x44(%rdx),%r12d
  2050bb:	8b 5a 48             	mov    0x48(%rdx),%ebx
  2050be:	48 89 f7             	mov    %rsi,%rdi
  2050c1:	4c 89 de             	mov    %r11,%rsi
  2050c4:	44 89 d2             	mov    %r10d,%edx
  2050c7:	b8 00 00 00 00       	mov    $0x0,%eax
  2050cc:	53                   	push   %rbx
  2050cd:	41 54                	push   %r12
  2050cf:	41 57                	push   %r15
  2050d1:	41 56                	push   %r14
  2050d3:	e8 98 ba 01 00       	callq  220b70 <sprintf@plt>
  2050d8:	48 83 c4 28          	add    $0x28,%rsp
  2050dc:	5b                   	pop    %rbx
  2050dd:	41 5c                	pop    %r12
  2050df:	41 5e                	pop    %r14
  2050e1:	41 5f                	pop    %r15
  2050e3:	c3                   	retq   
  2050e4:	cc                   	int3   
  2050e5:	cc                   	int3   
  2050e6:	cc                   	int3   
  2050e7:	cc                   	int3   
  2050e8:	cc                   	int3   
  2050e9:	cc                   	int3   
  2050ea:	cc                   	int3   
  2050eb:	cc                   	int3   
  2050ec:	cc                   	int3   
  2050ed:	cc                   	int3   
  2050ee:	cc                   	int3   
  2050ef:	cc                   	int3   

00000000002050f0 <reset_error_mgr>:
  2050f0:	48 8b 07             	mov    (%rdi),%rax
  2050f3:	48 c7 80 80 00 00 00 	movq   $0x0,0x80(%rax)
  2050fa:	00 00 00 00 
  2050fe:	c7 40 28 00 00 00 00 	movl   $0x0,0x28(%rax)
  205105:	c3                   	retq   
  205106:	cc                   	int3   
  205107:	cc                   	int3   
  205108:	cc                   	int3   
  205109:	cc                   	int3   
  20510a:	cc                   	int3   
  20510b:	cc                   	int3   
  20510c:	cc                   	int3   
  20510d:	cc                   	int3   
  20510e:	cc                   	int3   
  20510f:	cc                   	int3   

0000000000205110 <jpeg_abort>:
  205110:	53                   	push   %rbx
  205111:	48 8b 47 08          	mov    0x8(%rdi),%rax
  205115:	48 85 c0             	test   %rax,%rax
  205118:	74 2c                	je     205146 <jpeg_abort+0x36>
  20511a:	48 89 fb             	mov    %rdi,%rbx
  20511d:	be 01 00 00 00       	mov    $0x1,%esi
  205122:	ff 50 48             	callq  *0x48(%rax)
  205125:	83 7b 20 00          	cmpl   $0x0,0x20(%rbx)
  205129:	74 14                	je     20513f <jpeg_abort+0x2f>
  20512b:	c7 43 24 c8 00 00 00 	movl   $0xc8,0x24(%rbx)
  205132:	48 c7 83 98 01 00 00 	movq   $0x0,0x198(%rbx)
  205139:	00 00 00 00 
  20513d:	5b                   	pop    %rbx
  20513e:	c3                   	retq   
  20513f:	c7 43 24 64 00 00 00 	movl   $0x64,0x24(%rbx)
  205146:	5b                   	pop    %rbx
  205147:	c3                   	retq   
  205148:	cc                   	int3   
  205149:	cc                   	int3   
  20514a:	cc                   	int3   
  20514b:	cc                   	int3   
  20514c:	cc                   	int3   
  20514d:	cc                   	int3   
  20514e:	cc                   	int3   
  20514f:	cc                   	int3   

0000000000205150 <jpeg_destroy>:
  205150:	53                   	push   %rbx
  205151:	48 89 fb             	mov    %rdi,%rbx
  205154:	48 8b 47 08          	mov    0x8(%rdi),%rax
  205158:	48 85 c0             	test   %rax,%rax
  20515b:	74 06                	je     205163 <jpeg_destroy+0x13>
  20515d:	48 89 df             	mov    %rbx,%rdi
  205160:	ff 50 50             	callq  *0x50(%rax)
  205163:	48 c7 43 08 00 00 00 	movq   $0x0,0x8(%rbx)
  20516a:	00 
  20516b:	c7 43 24 00 00 00 00 	movl   $0x0,0x24(%rbx)
  205172:	5b                   	pop    %rbx
  205173:	c3                   	retq   
  205174:	cc                   	int3   
  205175:	cc                   	int3   
  205176:	cc                   	int3   
  205177:	cc                   	int3   
  205178:	cc                   	int3   
  205179:	cc                   	int3   
  20517a:	cc                   	int3   
  20517b:	cc                   	int3   
  20517c:	cc                   	int3   
  20517d:	cc                   	int3   
  20517e:	cc                   	int3   
  20517f:	cc                   	int3   

0000000000205180 <jpeg_alloc_quant_table>:
  205180:	50                   	push   %rax
  205181:	48 8b 47 08          	mov    0x8(%rdi),%rax
  205185:	ba 84 00 00 00       	mov    $0x84,%edx
  20518a:	31 f6                	xor    %esi,%esi
  20518c:	ff 10                	callq  *(%rax)
  20518e:	c7 80 80 00 00 00 00 	movl   $0x0,0x80(%rax)
  205195:	00 00 00 
  205198:	59                   	pop    %rcx
  205199:	c3                   	retq   
  20519a:	cc                   	int3   
  20519b:	cc                   	int3   
  20519c:	cc                   	int3   
  20519d:	cc                   	int3   
  20519e:	cc                   	int3   
  20519f:	cc                   	int3   

00000000002051a0 <jpeg_alloc_huff_table>:
  2051a0:	50                   	push   %rax
  2051a1:	48 8b 47 08          	mov    0x8(%rdi),%rax
  2051a5:	ba 18 01 00 00       	mov    $0x118,%edx
  2051aa:	31 f6                	xor    %esi,%esi
  2051ac:	ff 10                	callq  *(%rax)
  2051ae:	c7 80 14 01 00 00 00 	movl   $0x0,0x114(%rax)
  2051b5:	00 00 00 
  2051b8:	59                   	pop    %rcx
  2051b9:	c3                   	retq   
  2051ba:	cc                   	int3   
  2051bb:	cc                   	int3   
  2051bc:	cc                   	int3   
  2051bd:	cc                   	int3   
  2051be:	cc                   	int3   
  2051bf:	cc                   	int3   

00000000002051c0 <jpeg_CreateDecompress>:
  2051c0:	41 56                	push   %r14
  2051c2:	53                   	push   %rbx
  2051c3:	50                   	push   %rax
  2051c4:	48 89 fb             	mov    %rdi,%rbx
  2051c7:	48 8d 7f 08          	lea    0x8(%rdi),%rdi
  2051cb:	48 c7 43 08 00 00 00 	movq   $0x0,0x8(%rbx)
  2051d2:	00 
  2051d3:	4c 8b 73 18          	mov    0x18(%rbx),%r14
  2051d7:	ba 90 02 00 00       	mov    $0x290,%edx
  2051dc:	31 f6                	xor    %esi,%esi
  2051de:	e8 9d b9 01 00       	callq  220b80 <memset@plt>
  2051e3:	4c 89 73 18          	mov    %r14,0x18(%rbx)
  2051e7:	c7 43 20 01 00 00 00 	movl   $0x1,0x20(%rbx)
  2051ee:	48 89 df             	mov    %rbx,%rdi
  2051f1:	e8 ea 03 00 00       	callq  2055e0 <jinit_memory_mgr>
  2051f6:	48 c7 43 10 00 00 00 	movq   $0x0,0x10(%rbx)
  2051fd:	00 
  2051fe:	48 c7 43 28 00 00 00 	movq   $0x0,0x28(%rbx)
  205205:	00 
  205206:	48 c7 83 98 01 00 00 	movq   $0x0,0x198(%rbx)
  20520d:	00 00 00 00 
  205211:	0f 57 c0             	xorps  %xmm0,%xmm0
  205214:	0f 11 83 c8 00 00 00 	movups %xmm0,0xc8(%rbx)
  20521b:	0f 11 83 d8 00 00 00 	movups %xmm0,0xd8(%rbx)
  205222:	0f 11 83 e8 00 00 00 	movups %xmm0,0xe8(%rbx)
  205229:	0f 11 83 f8 00 00 00 	movups %xmm0,0xf8(%rbx)
  205230:	0f 11 83 08 01 00 00 	movups %xmm0,0x108(%rbx)
  205237:	0f 11 83 18 01 00 00 	movups %xmm0,0x118(%rbx)
  20523e:	48 89 df             	mov    %rbx,%rdi
  205241:	e8 ea 17 00 00       	callq  206a30 <jinit_marker_reader>
  205246:	48 89 df             	mov    %rbx,%rdi
  205249:	e8 32 44 00 00       	callq  209680 <jinit_input_controller>
  20524e:	c7 43 24 c8 00 00 00 	movl   $0xc8,0x24(%rbx)
  205255:	48 83 c4 08          	add    $0x8,%rsp
  205259:	5b                   	pop    %rbx
  20525a:	41 5e                	pop    %r14
  20525c:	c3                   	retq   
  20525d:	cc                   	int3   
  20525e:	cc                   	int3   
  20525f:	cc                   	int3   

0000000000205260 <jpeg_destroy_decompress>:
  205260:	e9 eb fe ff ff       	jmpq   205150 <jpeg_destroy>
  205265:	cc                   	int3   
  205266:	cc                   	int3   
  205267:	cc                   	int3   
  205268:	cc                   	int3   
  205269:	cc                   	int3   
  20526a:	cc                   	int3   
  20526b:	cc                   	int3   
  20526c:	cc                   	int3   
  20526d:	cc                   	int3   
  20526e:	cc                   	int3   
  20526f:	cc                   	int3   

0000000000205270 <jpeg_read_header>:
  205270:	53                   	push   %rbx
  205271:	48 89 fb             	mov    %rdi,%rbx
  205274:	8b 47 24             	mov    0x24(%rdi),%eax
  205277:	89 c1                	mov    %eax,%ecx
  205279:	83 e1 fe             	and    $0xfffffffe,%ecx
  20527c:	81 f9 c8 00 00 00    	cmp    $0xc8,%ecx
  205282:	74 15                	je     205299 <jpeg_read_header+0x29>
  205284:	48 8b 0b             	mov    (%rbx),%rcx
  205287:	c7 41 28 15 00 00 00 	movl   $0x15,0x28(%rcx)
  20528e:	89 41 2c             	mov    %eax,0x2c(%rcx)
  205291:	48 8b 03             	mov    (%rbx),%rax
  205294:	48 89 df             	mov    %rbx,%rdi
  205297:	ff 10                	callq  *(%rax)
  205299:	48 89 df             	mov    %rbx,%rdi
  20529c:	e8 1f 00 00 00       	callq  2052c0 <jpeg_consume_input>
  2052a1:	83 f8 02             	cmp    $0x2,%eax
  2052a4:	75 18                	jne    2052be <jpeg_read_header+0x4e>
  2052a6:	48 8b 03             	mov    (%rbx),%rax
  2052a9:	c7 40 28 35 00 00 00 	movl   $0x35,0x28(%rax)
  2052b0:	48 89 df             	mov    %rbx,%rdi
  2052b3:	ff 10                	callq  *(%rax)
  2052b5:	48 89 df             	mov    %rbx,%rdi
  2052b8:	5b                   	pop    %rbx
  2052b9:	e9 52 fe ff ff       	jmpq   205110 <jpeg_abort>
  2052be:	5b                   	pop    %rbx
  2052bf:	c3                   	retq   

00000000002052c0 <jpeg_consume_input>:
  2052c0:	53                   	push   %rbx
  2052c1:	48 89 fb             	mov    %rdi,%rbx
  2052c4:	8b 4f 24             	mov    0x24(%rdi),%ecx
  2052c7:	81 f9 ca 00 00 00    	cmp    $0xca,%ecx
  2052cd:	7e 18                	jle    2052e7 <jpeg_consume_input+0x27>
  2052cf:	8d 81 35 ff ff ff    	lea    -0xcb(%rcx),%eax
  2052d5:	83 f8 06             	cmp    $0x6,%eax
  2052d8:	73 2c                	jae    205306 <jpeg_consume_input+0x46>
  2052da:	48 8b 83 60 02 00 00 	mov    0x260(%rbx),%rax
  2052e1:	48 89 df             	mov    %rbx,%rdi
  2052e4:	5b                   	pop    %rbx
  2052e5:	ff 20                	jmpq   *(%rax)
  2052e7:	81 f9 c8 00 00 00    	cmp    $0xc8,%ecx
  2052ed:	74 38                	je     205327 <jpeg_consume_input+0x67>
  2052ef:	81 f9 c9 00 00 00    	cmp    $0xc9,%ecx
  2052f5:	74 4e                	je     205345 <jpeg_consume_input+0x85>
  2052f7:	b8 01 00 00 00       	mov    $0x1,%eax
  2052fc:	81 f9 ca 00 00 00    	cmp    $0xca,%ecx
  205302:	74 66                	je     20536a <jpeg_consume_input+0xaa>
  205304:	eb 08                	jmp    20530e <jpeg_consume_input+0x4e>
  205306:	81 f9 d2 00 00 00    	cmp    $0xd2,%ecx
  20530c:	74 cc                	je     2052da <jpeg_consume_input+0x1a>
  20530e:	48 8b 03             	mov    (%rbx),%rax
  205311:	c7 40 28 15 00 00 00 	movl   $0x15,0x28(%rax)
  205318:	89 48 2c             	mov    %ecx,0x2c(%rax)
  20531b:	48 8b 03             	mov    (%rbx),%rax
  20531e:	48 89 df             	mov    %rbx,%rdi
  205321:	ff 10                	callq  *(%rax)
  205323:	31 c0                	xor    %eax,%eax
  205325:	5b                   	pop    %rbx
  205326:	c3                   	retq   
  205327:	48 8b 83 60 02 00 00 	mov    0x260(%rbx),%rax
  20532e:	48 89 df             	mov    %rbx,%rdi
  205331:	ff 50 08             	callq  *0x8(%rax)
  205334:	48 8b 43 28          	mov    0x28(%rbx),%rax
  205338:	48 89 df             	mov    %rbx,%rdi
  20533b:	ff 50 10             	callq  *0x10(%rax)
  20533e:	c7 43 24 c9 00 00 00 	movl   $0xc9,0x24(%rbx)
  205345:	48 8b 83 60 02 00 00 	mov    0x260(%rbx),%rax
  20534c:	48 89 df             	mov    %rbx,%rdi
  20534f:	ff 10                	callq  *(%rax)
  205351:	83 f8 01             	cmp    $0x1,%eax
  205354:	75 14                	jne    20536a <jpeg_consume_input+0xaa>
  205356:	48 89 df             	mov    %rbx,%rdi
  205359:	e8 12 00 00 00       	callq  205370 <default_decompress_parms>
  20535e:	c7 43 24 ca 00 00 00 	movl   $0xca,0x24(%rbx)
  205365:	b8 01 00 00 00       	mov    $0x1,%eax
  20536a:	5b                   	pop    %rbx
  20536b:	c3                   	retq   
  20536c:	cc                   	int3   
  20536d:	cc                   	int3   
  20536e:	cc                   	int3   
  20536f:	cc                   	int3   

0000000000205370 <default_decompress_parms>:
  205370:	55                   	push   %rbp
  205371:	53                   	push   %rbx
  205372:	50                   	push   %rax
  205373:	48 89 fb             	mov    %rdi,%rbx
  205376:	8b 47 38             	mov    0x38(%rdi),%eax
  205379:	83 f8 01             	cmp    $0x1,%eax
  20537c:	74 3a                	je     2053b8 <default_decompress_parms+0x48>
  20537e:	83 f8 04             	cmp    $0x4,%eax
  205381:	74 44                	je     2053c7 <default_decompress_parms+0x57>
  205383:	83 f8 03             	cmp    $0x3,%eax
  205386:	75 63                	jne    2053eb <default_decompress_parms+0x7b>
  205388:	48 8b 93 30 01 00 00 	mov    0x130(%rbx),%rdx
  20538f:	8b 02                	mov    (%rdx),%eax
  205391:	8b 4a 60             	mov    0x60(%rdx),%ecx
  205394:	8b 92 c0 00 00 00    	mov    0xc0(%rdx),%edx
  20539a:	bd 02 00 00 00       	mov    $0x2,%ebp
  20539f:	83 f8 01             	cmp    $0x1,%eax
  2053a2:	75 54                	jne    2053f8 <default_decompress_parms+0x88>
  2053a4:	83 f9 02             	cmp    $0x2,%ecx
  2053a7:	75 4f                	jne    2053f8 <default_decompress_parms+0x88>
  2053a9:	83 fa 03             	cmp    $0x3,%edx
  2053ac:	75 4a                	jne    2053f8 <default_decompress_parms+0x88>
  2053ae:	be 03 00 00 00       	mov    $0x3,%esi
  2053b3:	e9 a5 00 00 00       	jmpq   20545d <default_decompress_parms+0xed>
  2053b8:	be 01 00 00 00       	mov    $0x1,%esi
  2053bd:	bd 01 00 00 00       	mov    $0x1,%ebp
  2053c2:	e9 96 00 00 00       	jmpq   20545d <default_decompress_parms+0xed>
  2053c7:	bd 04 00 00 00       	mov    $0x4,%ebp
  2053cc:	83 bb 84 01 00 00 00 	cmpl   $0x0,0x184(%rbx)
  2053d3:	74 1c                	je     2053f1 <default_decompress_parms+0x81>
  2053d5:	0f b6 83 88 01 00 00 	movzbl 0x188(%rbx),%eax
  2053dc:	85 c0                	test   %eax,%eax
  2053de:	74 11                	je     2053f1 <default_decompress_parms+0x81>
  2053e0:	3c 02                	cmp    $0x2,%al
  2053e2:	75 43                	jne    205427 <default_decompress_parms+0xb7>
  2053e4:	be 05 00 00 00       	mov    $0x5,%esi
  2053e9:	eb 72                	jmp    20545d <default_decompress_parms+0xed>
  2053eb:	31 f6                	xor    %esi,%esi
  2053ed:	31 ed                	xor    %ebp,%ebp
  2053ef:	eb 6c                	jmp    20545d <default_decompress_parms+0xed>
  2053f1:	be 04 00 00 00       	mov    $0x4,%esi
  2053f6:	eb 65                	jmp    20545d <default_decompress_parms+0xed>
  2053f8:	83 f8 01             	cmp    $0x1,%eax
  2053fb:	75 0f                	jne    20540c <default_decompress_parms+0x9c>
  2053fd:	83 f9 22             	cmp    $0x22,%ecx
  205400:	75 0a                	jne    20540c <default_decompress_parms+0x9c>
  205402:	be 07 00 00 00       	mov    $0x7,%esi
  205407:	83 fa 23             	cmp    $0x23,%edx
  20540a:	74 51                	je     20545d <default_decompress_parms+0xed>
  20540c:	bd 02 00 00 00       	mov    $0x2,%ebp
  205411:	83 f8 52             	cmp    $0x52,%eax
  205414:	75 33                	jne    205449 <default_decompress_parms+0xd9>
  205416:	83 f9 47             	cmp    $0x47,%ecx
  205419:	75 2e                	jne    205449 <default_decompress_parms+0xd9>
  20541b:	83 fa 42             	cmp    $0x42,%edx
  20541e:	75 29                	jne    205449 <default_decompress_parms+0xd9>
  205420:	be 02 00 00 00       	mov    $0x2,%esi
  205425:	eb 36                	jmp    20545d <default_decompress_parms+0xed>
  205427:	48 8b 0b             	mov    (%rbx),%rcx
  20542a:	c7 41 28 74 00 00 00 	movl   $0x74,0x28(%rcx)
  205431:	89 41 2c             	mov    %eax,0x2c(%rcx)
  205434:	48 8b 03             	mov    (%rbx),%rax
  205437:	48 89 df             	mov    %rbx,%rdi
  20543a:	be ff ff ff ff       	mov    $0xffffffff,%esi
  20543f:	ff 50 08             	callq  *0x8(%rax)
  205442:	be 05 00 00 00       	mov    $0x5,%esi
  205447:	eb 14                	jmp    20545d <default_decompress_parms+0xed>
  205449:	83 f8 72             	cmp    $0x72,%eax
  20544c:	75 65                	jne    2054b3 <default_decompress_parms+0x143>
  20544e:	83 f9 67             	cmp    $0x67,%ecx
  205451:	75 60                	jne    2054b3 <default_decompress_parms+0x143>
  205453:	be 06 00 00 00       	mov    $0x6,%esi
  205458:	83 fa 62             	cmp    $0x62,%edx
  20545b:	75 56                	jne    2054b3 <default_decompress_parms+0x143>
  20545d:	89 73 3c             	mov    %esi,0x3c(%rbx)
  205460:	89 6b 40             	mov    %ebp,0x40(%rbx)
  205463:	8b 83 2c 02 00 00    	mov    0x22c(%rbx),%eax
  205469:	89 43 44             	mov    %eax,0x44(%rbx)
  20546c:	89 43 48             	mov    %eax,0x48(%rbx)
  20546f:	48 b8 00 00 00 00 00 	movabs $0x3ff0000000000000,%rax
  205476:	00 f0 3f 
  205479:	48 89 43 50          	mov    %rax,0x50(%rbx)
  20547d:	0f 28 05 dc b7 ff ff 	movaps -0x4824(%rip),%xmm0        # 200c60 <first_pool_slop+0x90>
  205484:	0f 11 43 58          	movups %xmm0,0x58(%rbx)
  205488:	0f 28 05 31 b6 ff ff 	movaps -0x49cf(%rip),%xmm0        # 200ac0 <_IO_stdin_used+0x5c>
  20548f:	0f 11 43 68          	movups %xmm0,0x68(%rbx)
  205493:	48 c7 83 a0 00 00 00 	movq   $0x0,0xa0(%rbx)
  20549a:	00 00 00 00 
  20549e:	b8 00 01 00 00       	mov    $0x100,%eax
  2054a3:	66 0f 6e c0          	movd   %eax,%xmm0
  2054a7:	f3 0f 7f 43 78       	movdqu %xmm0,0x78(%rbx)
  2054ac:	48 83 c4 08          	add    $0x8,%rsp
  2054b0:	5b                   	pop    %rbx
  2054b1:	5d                   	pop    %rbp
  2054b2:	c3                   	retq   
  2054b3:	83 bb 78 01 00 00 00 	cmpl   $0x0,0x178(%rbx)
  2054ba:	0f 85 ee fe ff ff    	jne    2053ae <default_decompress_parms+0x3e>
  2054c0:	83 bb 84 01 00 00 00 	cmpl   $0x0,0x184(%rbx)
  2054c7:	74 37                	je     205500 <default_decompress_parms+0x190>
  2054c9:	0f b6 83 88 01 00 00 	movzbl 0x188(%rbx),%eax
  2054d0:	85 c0                	test   %eax,%eax
  2054d2:	0f 84 48 ff ff ff    	je     205420 <default_decompress_parms+0xb0>
  2054d8:	3c 01                	cmp    $0x1,%al
  2054da:	0f 84 ce fe ff ff    	je     2053ae <default_decompress_parms+0x3e>
  2054e0:	48 8b 0b             	mov    (%rbx),%rcx
  2054e3:	c7 41 28 74 00 00 00 	movl   $0x74,0x28(%rcx)
  2054ea:	89 41 2c             	mov    %eax,0x2c(%rcx)
  2054ed:	48 8b 03             	mov    (%rbx),%rax
  2054f0:	48 89 df             	mov    %rbx,%rdi
  2054f3:	be ff ff ff ff       	mov    $0xffffffff,%esi
  2054f8:	ff 50 08             	callq  *0x8(%rax)
  2054fb:	e9 ae fe ff ff       	jmpq   2053ae <default_decompress_parms+0x3e>
  205500:	4c 8b 03             	mov    (%rbx),%r8
  205503:	41 89 40 2c          	mov    %eax,0x2c(%r8)
  205507:	41 89 48 30          	mov    %ecx,0x30(%r8)
  20550b:	41 89 50 34          	mov    %edx,0x34(%r8)
  20550f:	41 c7 40 28 71 00 00 	movl   $0x71,0x28(%r8)
  205516:	00 
  205517:	48 89 df             	mov    %rbx,%rdi
  20551a:	be 01 00 00 00       	mov    $0x1,%esi
  20551f:	41 ff 50 08          	callq  *0x8(%r8)
  205523:	e9 86 fe ff ff       	jmpq   2053ae <default_decompress_parms+0x3e>
  205528:	cc                   	int3   
  205529:	cc                   	int3   
  20552a:	cc                   	int3   
  20552b:	cc                   	int3   
  20552c:	cc                   	int3   
  20552d:	cc                   	int3   
  20552e:	cc                   	int3   
  20552f:	cc                   	int3   

0000000000205530 <jpeg_finish_decompress>:
  205530:	53                   	push   %rbx
  205531:	48 89 fb             	mov    %rdi,%rbx
  205534:	8b 47 24             	mov    0x24(%rdi),%eax
  205537:	8d 88 33 ff ff ff    	lea    -0xcd(%rax),%ecx
  20553d:	83 f9 01             	cmp    $0x1,%ecx
  205540:	77 06                	ja     205548 <jpeg_finish_decompress+0x18>
  205542:	83 7b 58 00          	cmpl   $0x0,0x58(%rbx)
  205546:	74 2e                	je     205576 <jpeg_finish_decompress+0x46>
  205548:	3d d2 00 00 00       	cmp    $0xd2,%eax
  20554d:	74 61                	je     2055b0 <jpeg_finish_decompress+0x80>
  20554f:	3d cf 00 00 00       	cmp    $0xcf,%eax
  205554:	75 09                	jne    20555f <jpeg_finish_decompress+0x2f>
  205556:	c7 43 24 d2 00 00 00 	movl   $0xd2,0x24(%rbx)
  20555d:	eb 51                	jmp    2055b0 <jpeg_finish_decompress+0x80>
  20555f:	48 8b 0b             	mov    (%rbx),%rcx
  205562:	c7 41 28 15 00 00 00 	movl   $0x15,0x28(%rcx)
  205569:	89 41 2c             	mov    %eax,0x2c(%rcx)
  20556c:	48 8b 03             	mov    (%rbx),%rax
  20556f:	48 89 df             	mov    %rbx,%rdi
  205572:	ff 10                	callq  *(%rax)
  205574:	eb 3a                	jmp    2055b0 <jpeg_finish_decompress+0x80>
  205576:	8b 83 a8 00 00 00    	mov    0xa8(%rbx),%eax
  20557c:	3b 83 8c 00 00 00    	cmp    0x8c(%rbx),%eax
  205582:	73 0f                	jae    205593 <jpeg_finish_decompress+0x63>
  205584:	48 8b 03             	mov    (%rbx),%rax
  205587:	c7 40 28 45 00 00 00 	movl   $0x45,0x28(%rax)
  20558e:	48 89 df             	mov    %rbx,%rdi
  205591:	ff 10                	callq  *(%rax)
  205593:	48 8b 83 40 02 00 00 	mov    0x240(%rbx),%rax
  20559a:	48 89 df             	mov    %rbx,%rdi
  20559d:	ff 50 08             	callq  *0x8(%rax)
  2055a0:	c7 43 24 d2 00 00 00 	movl   $0xd2,0x24(%rbx)
  2055a7:	90                   	nop
  2055a8:	90                   	nop
  2055a9:	90                   	nop
  2055aa:	90                   	nop
  2055ab:	90                   	nop
  2055ac:	90                   	nop
  2055ad:	90                   	nop
  2055ae:	90                   	nop
  2055af:	90                   	nop
  2055b0:	48 8b 83 60 02 00 00 	mov    0x260(%rbx),%rax
  2055b7:	83 78 24 00          	cmpl   $0x0,0x24(%rax)
  2055bb:	75 0b                	jne    2055c8 <jpeg_finish_decompress+0x98>
  2055bd:	48 89 df             	mov    %rbx,%rdi
  2055c0:	ff 10                	callq  *(%rax)
  2055c2:	85 c0                	test   %eax,%eax
  2055c4:	75 ea                	jne    2055b0 <jpeg_finish_decompress+0x80>
  2055c6:	5b                   	pop    %rbx
  2055c7:	c3                   	retq   
  2055c8:	48 8b 43 28          	mov    0x28(%rbx),%rax
  2055cc:	48 89 df             	mov    %rbx,%rdi
  2055cf:	ff 50 30             	callq  *0x30(%rax)
  2055d2:	48 89 df             	mov    %rbx,%rdi
  2055d5:	5b                   	pop    %rbx
  2055d6:	e9 35 fb ff ff       	jmpq   205110 <jpeg_abort>
  2055db:	cc                   	int3   
  2055dc:	cc                   	int3   
  2055dd:	cc                   	int3   
  2055de:	cc                   	int3   
  2055df:	cc                   	int3   

00000000002055e0 <jinit_memory_mgr>:
  2055e0:	41 57                	push   %r15
  2055e2:	41 56                	push   %r14
  2055e4:	53                   	push   %rbx
  2055e5:	48 83 ec 10          	sub    $0x10,%rsp
  2055e9:	49 89 fe             	mov    %rdi,%r14
  2055ec:	48 c7 47 08 00 00 00 	movq   $0x0,0x8(%rdi)
  2055f3:	00 
  2055f4:	e8 d7 11 00 00       	callq  2067d0 <jpeg_mem_init>
  2055f9:	49 89 c7             	mov    %rax,%r15
  2055fc:	48 89 44 24 08       	mov    %rax,0x8(%rsp)
  205601:	bf a8 00 00 00       	mov    $0xa8,%edi
  205606:	e8 65 11 00 00       	callq  206770 <jpeg_get_small>
  20560b:	48 89 c3             	mov    %rax,%rbx
  20560e:	48 85 c0             	test   %rax,%rax
  205611:	75 13                	jne    205626 <jinit_memory_mgr+0x46>
  205613:	49 8b 06             	mov    (%r14),%rax
  205616:	48 c7 40 28 38 00 00 	movq   $0x38,0x28(%rax)
  20561d:	00 
  20561e:	49 8b 06             	mov    (%r14),%rax
  205621:	4c 89 f7             	mov    %r14,%rdi
  205624:	ff 10                	callq  *(%rax)
  205626:	b8 70 58 20 00       	mov    $0x205870,%eax
  20562b:	66 48 0f 6e c0       	movq   %rax,%xmm0
  205630:	b8 20 57 20 00       	mov    $0x205720,%eax
  205635:	66 48 0f 6e c8       	movq   %rax,%xmm1
  20563a:	66 0f 6c c8          	punpcklqdq %xmm0,%xmm1
  20563e:	f3 0f 7f 0b          	movdqu %xmm1,(%rbx)
  205642:	48 c7 43 10 30 59 20 	movq   $0x205930,0x10(%rbx)
  205649:	00 
  20564a:	48 c7 43 18 70 5a 20 	movq   $0x205a70,0x18(%rbx)
  205651:	00 
  205652:	48 c7 43 20 b0 5b 20 	movq   $0x205bb0,0x20(%rbx)
  205659:	00 
  20565a:	48 c7 43 28 50 5c 20 	movq   $0x205c50,0x28(%rbx)
  205661:	00 
  205662:	48 c7 43 30 f0 5c 20 	movq   $0x205cf0,0x30(%rbx)
  205669:	00 
  20566a:	48 c7 43 38 10 5f 20 	movq   $0x205f10,0x38(%rbx)
  205671:	00 
  205672:	48 c7 43 40 40 61 20 	movq   $0x206140,0x40(%rbx)
  205679:	00 
  20567a:	48 c7 43 48 80 63 20 	movq   $0x206380,0x48(%rbx)
  205681:	00 
  205682:	48 c7 43 50 e0 64 20 	movq   $0x2064e0,0x50(%rbx)
  205689:	00 
  20568a:	48 c7 43 60 00 ca 9a 	movq   $0x3b9aca00,0x60(%rbx)
  205691:	3b 
  205692:	4c 89 7b 58          	mov    %r15,0x58(%rbx)
  205696:	66 0f ef c0          	pxor   %xmm0,%xmm0
  20569a:	f3 0f 7f 43 68       	movdqu %xmm0,0x68(%rbx)
  20569f:	f3 0f 7f 43 78       	movdqu %xmm0,0x78(%rbx)
  2056a4:	f3 0f 7f 83 88 00 00 	movdqu %xmm0,0x88(%rbx)
  2056ab:	00 
  2056ac:	48 c7 83 98 00 00 00 	movq   $0xa8,0x98(%rbx)
  2056b3:	a8 00 00 00 
  2056b7:	49 89 5e 08          	mov    %rbx,0x8(%r14)
  2056bb:	bf 47 0f 20 00       	mov    $0x200f47,%edi
  2056c0:	e8 cb b4 01 00       	callq  220b90 <getenv@plt>
  2056c5:	48 85 c0             	test   %rax,%rax
  2056c8:	74 4c                	je     205716 <jinit_memory_mgr+0x136>
  2056ca:	c6 44 24 07 78       	movb   $0x78,0x7(%rsp)
  2056cf:	48 8d 54 24 08       	lea    0x8(%rsp),%rdx
  2056d4:	48 8d 4c 24 07       	lea    0x7(%rsp),%rcx
  2056d9:	be f9 1f 20 00       	mov    $0x201ff9,%esi
  2056de:	48 89 c7             	mov    %rax,%rdi
  2056e1:	31 c0                	xor    %eax,%eax
  2056e3:	e8 78 b4 01 00       	callq  220b60 <__isoc99_sscanf@plt>
  2056e8:	85 c0                	test   %eax,%eax
  2056ea:	7e 2a                	jle    205716 <jinit_memory_mgr+0x136>
  2056ec:	8a 44 24 07          	mov    0x7(%rsp),%al
  2056f0:	0c 20                	or     $0x20,%al
  2056f2:	3c 6d                	cmp    $0x6d,%al
  2056f4:	75 10                	jne    205706 <jinit_memory_mgr+0x126>
  2056f6:	48 69 44 24 08 e8 03 	imul   $0x3e8,0x8(%rsp),%rax
  2056fd:	00 00 
  2056ff:	48 89 44 24 08       	mov    %rax,0x8(%rsp)
  205704:	eb 05                	jmp    20570b <jinit_memory_mgr+0x12b>
  205706:	48 8b 44 24 08       	mov    0x8(%rsp),%rax
  20570b:	48 69 c0 e8 03 00 00 	imul   $0x3e8,%rax,%rax
  205712:	48 89 43 58          	mov    %rax,0x58(%rbx)
  205716:	48 83 c4 10          	add    $0x10,%rsp
  20571a:	5b                   	pop    %rbx
  20571b:	41 5e                	pop    %r14
  20571d:	41 5f                	pop    %r15
  20571f:	c3                   	retq   

0000000000205720 <alloc_small>:
  205720:	55                   	push   %rbp
  205721:	41 57                	push   %r15
  205723:	41 56                	push   %r14
  205725:	41 55                	push   %r13
  205727:	41 54                	push   %r12
  205729:	53                   	push   %rbx
  20572a:	50                   	push   %rax
  20572b:	48 89 d5             	mov    %rdx,%rbp
  20572e:	41 89 f6             	mov    %esi,%r14d
  205731:	49 89 ff             	mov    %rdi,%r15
  205734:	4c 8b 67 08          	mov    0x8(%rdi),%r12
  205738:	48 81 fa e9 c9 9a 3b 	cmp    $0x3b9ac9e9,%rdx
  20573f:	72 0d                	jb     20574e <alloc_small+0x2e>
  205741:	4c 89 ff             	mov    %r15,%rdi
  205744:	be 01 00 00 00       	mov    $0x1,%esi
  205749:	e8 02 10 00 00       	callq  206750 <out_of_memory>
  20574e:	89 e8                	mov    %ebp,%eax
  205750:	83 e0 07             	and    $0x7,%eax
  205753:	41 bd 08 00 00 00    	mov    $0x8,%r13d
  205759:	49 29 c5             	sub    %rax,%r13
  20575c:	48 85 c0             	test   %rax,%rax
  20575f:	4c 0f 44 e8          	cmove  %rax,%r13
  205763:	41 83 fe 02          	cmp    $0x2,%r14d
  205767:	72 16                	jb     20577f <alloc_small+0x5f>
  205769:	49 8b 07             	mov    (%r15),%rax
  20576c:	c7 40 28 0f 00 00 00 	movl   $0xf,0x28(%rax)
  205773:	44 89 70 2c          	mov    %r14d,0x2c(%rax)
  205777:	49 8b 07             	mov    (%r15),%rax
  20577a:	4c 89 ff             	mov    %r15,%rdi
  20577d:	ff 10                	callq  *(%rax)
  20577f:	49 01 ed             	add    %rbp,%r13
  205782:	49 63 c6             	movslq %r14d,%rax
  205785:	49 8b 4c c4 68       	mov    0x68(%r12,%rax,8),%rcx
  20578a:	48 85 c9             	test   %rcx,%rcx
  20578d:	74 1b                	je     2057aa <alloc_small+0x8a>
  20578f:	90                   	nop
  205790:	48 89 cb             	mov    %rcx,%rbx
  205793:	48 8b 49 10          	mov    0x10(%rcx),%rcx
  205797:	4c 39 e9             	cmp    %r13,%rcx
  20579a:	0f 83 99 00 00 00    	jae    205839 <alloc_small+0x119>
  2057a0:	48 8b 0b             	mov    (%rbx),%rcx
  2057a3:	48 85 c9             	test   %rcx,%rcx
  2057a6:	75 e8                	jne    205790 <alloc_small+0x70>
  2057a8:	eb 02                	jmp    2057ac <alloc_small+0x8c>
  2057aa:	31 db                	xor    %ebx,%ebx
  2057ac:	4c 89 24 24          	mov    %r12,(%rsp)
  2057b0:	4d 8d 34 c4          	lea    (%r12,%rax,8),%r14
  2057b4:	49 83 c6 68          	add    $0x68,%r14
  2057b8:	48 85 db             	test   %rbx,%rbx
  2057bb:	b9 d0 0b 20 00       	mov    $0x200bd0,%ecx
  2057c0:	ba 60 0b 20 00       	mov    $0x200b60,%edx
  2057c5:	48 0f 44 d1          	cmove  %rcx,%rdx
  2057c9:	48 8b 04 c2          	mov    (%rdx,%rax,8),%rax
  2057cd:	41 bc e8 c9 9a 3b    	mov    $0x3b9ac9e8,%r12d
  2057d3:	4d 29 ec             	sub    %r13,%r12
  2057d6:	4c 39 e0             	cmp    %r12,%rax
  2057d9:	4c 0f 46 e0          	cmovbe %rax,%r12
  2057dd:	90                   	nop
  2057de:	90                   	nop
  2057df:	90                   	nop
  2057e0:	4b 8d 2c 2c          	lea    (%r12,%r13,1),%rbp
  2057e4:	48 83 c5 18          	add    $0x18,%rbp
  2057e8:	48 89 ef             	mov    %rbp,%rdi
  2057eb:	e8 80 0f 00 00       	callq  206770 <jpeg_get_small>
  2057f0:	48 85 c0             	test   %rax,%rax
  2057f3:	75 1b                	jne    205810 <alloc_small+0xf0>
  2057f5:	4c 89 e0             	mov    %r12,%rax
  2057f8:	49 d1 ec             	shr    %r12
  2057fb:	48 83 f8 63          	cmp    $0x63,%rax
  2057ff:	77 df                	ja     2057e0 <alloc_small+0xc0>
  205801:	4c 89 ff             	mov    %r15,%rdi
  205804:	be 02 00 00 00       	mov    $0x2,%esi
  205809:	e8 42 0f 00 00       	callq  206750 <out_of_memory>
  20580e:	eb d0                	jmp    2057e0 <alloc_small+0xc0>
  205810:	4d 01 ec             	add    %r13,%r12
  205813:	48 8b 0c 24          	mov    (%rsp),%rcx
  205817:	48 01 a9 98 00 00 00 	add    %rbp,0x98(%rcx)
  20581e:	48 85 db             	test   %rbx,%rbx
  205821:	0f 57 c0             	xorps  %xmm0,%xmm0
  205824:	0f 11 00             	movups %xmm0,(%rax)
  205827:	4c 89 60 10          	mov    %r12,0x10(%rax)
  20582b:	4c 0f 45 f3          	cmovne %rbx,%r14
  20582f:	49 89 06             	mov    %rax,(%r14)
  205832:	48 8b 48 10          	mov    0x10(%rax),%rcx
  205836:	48 89 c3             	mov    %rax,%rbx
  205839:	48 8b 53 08          	mov    0x8(%rbx),%rdx
  20583d:	48 8d 04 13          	lea    (%rbx,%rdx,1),%rax
  205841:	48 83 c0 18          	add    $0x18,%rax
  205845:	4c 01 ea             	add    %r13,%rdx
  205848:	48 89 53 08          	mov    %rdx,0x8(%rbx)
  20584c:	4c 29 e9             	sub    %r13,%rcx
  20584f:	48 89 4b 10          	mov    %rcx,0x10(%rbx)
  205853:	48 83 c4 08          	add    $0x8,%rsp
  205857:	5b                   	pop    %rbx
  205858:	41 5c                	pop    %r12
  20585a:	41 5d                	pop    %r13
  20585c:	41 5e                	pop    %r14
  20585e:	41 5f                	pop    %r15
  205860:	5d                   	pop    %rbp
  205861:	c3                   	retq   
  205862:	cc                   	int3   
  205863:	cc                   	int3   
  205864:	cc                   	int3   
  205865:	cc                   	int3   
  205866:	cc                   	int3   
  205867:	cc                   	int3   
  205868:	cc                   	int3   
  205869:	cc                   	int3   
  20586a:	cc                   	int3   
  20586b:	cc                   	int3   
  20586c:	cc                   	int3   
  20586d:	cc                   	int3   
  20586e:	cc                   	int3   
  20586f:	cc                   	int3   

0000000000205870 <alloc_large>:
  205870:	55                   	push   %rbp
  205871:	41 57                	push   %r15
  205873:	41 56                	push   %r14
  205875:	41 55                	push   %r13
  205877:	41 54                	push   %r12
  205879:	53                   	push   %rbx
  20587a:	50                   	push   %rax
  20587b:	48 89 d5             	mov    %rdx,%rbp
  20587e:	41 89 f6             	mov    %esi,%r14d
  205881:	49 89 ff             	mov    %rdi,%r15
  205884:	4c 8b 67 08          	mov    0x8(%rdi),%r12
  205888:	48 81 fa e9 c9 9a 3b 	cmp    $0x3b9ac9e9,%rdx
  20588f:	72 0d                	jb     20589e <alloc_large+0x2e>
  205891:	4c 89 ff             	mov    %r15,%rdi
  205894:	be 03 00 00 00       	mov    $0x3,%esi
  205899:	e8 b2 0e 00 00       	callq  206750 <out_of_memory>
  20589e:	89 e8                	mov    %ebp,%eax
  2058a0:	83 e0 07             	and    $0x7,%eax
  2058a3:	bb 08 00 00 00       	mov    $0x8,%ebx
  2058a8:	48 29 c3             	sub    %rax,%rbx
  2058ab:	48 85 c0             	test   %rax,%rax
  2058ae:	48 0f 44 d8          	cmove  %rax,%rbx
  2058b2:	48 01 eb             	add    %rbp,%rbx
  2058b5:	41 83 fe 02          	cmp    $0x2,%r14d
  2058b9:	72 16                	jb     2058d1 <alloc_large+0x61>
  2058bb:	49 8b 07             	mov    (%r15),%rax
  2058be:	c7 40 28 0f 00 00 00 	movl   $0xf,0x28(%rax)
  2058c5:	44 89 70 2c          	mov    %r14d,0x2c(%rax)
  2058c9:	49 8b 07             	mov    (%r15),%rax
  2058cc:	4c 89 ff             	mov    %r15,%rdi
  2058cf:	ff 10                	callq  *(%rax)
  2058d1:	4c 8d 6b 18          	lea    0x18(%rbx),%r13
  2058d5:	4c 89 ef             	mov    %r13,%rdi
  2058d8:	e8 b3 0e 00 00       	callq  206790 <jpeg_get_large>
  2058dd:	48 89 c5             	mov    %rax,%rbp
  2058e0:	48 85 c0             	test   %rax,%rax
  2058e3:	75 0d                	jne    2058f2 <alloc_large+0x82>
  2058e5:	4c 89 ff             	mov    %r15,%rdi
  2058e8:	be 04 00 00 00       	mov    $0x4,%esi
  2058ed:	e8 5e 0e 00 00       	callq  206750 <out_of_memory>
  2058f2:	4d 01 ac 24 98 00 00 	add    %r13,0x98(%r12)
  2058f9:	00 
  2058fa:	49 63 c6             	movslq %r14d,%rax
  2058fd:	49 8b 4c c4 78       	mov    0x78(%r12,%rax,8),%rcx
  205902:	48 89 4d 00          	mov    %rcx,0x0(%rbp)
  205906:	48 89 5d 08          	mov    %rbx,0x8(%rbp)
  20590a:	48 c7 45 10 00 00 00 	movq   $0x0,0x10(%rbp)
  205911:	00 
  205912:	49 89 6c c4 78       	mov    %rbp,0x78(%r12,%rax,8)
  205917:	48 83 c5 18          	add    $0x18,%rbp
  20591b:	48 89 e8             	mov    %rbp,%rax
  20591e:	48 83 c4 08          	add    $0x8,%rsp
  205922:	5b                   	pop    %rbx
  205923:	41 5c                	pop    %r12
  205925:	41 5d                	pop    %r13
  205927:	41 5e                	pop    %r14
  205929:	41 5f                	pop    %r15
  20592b:	5d                   	pop    %rbp
  20592c:	c3                   	retq   
  20592d:	cc                   	int3   
  20592e:	cc                   	int3   
  20592f:	cc                   	int3   

0000000000205930 <alloc_sarray>:
  205930:	55                   	push   %rbp
  205931:	41 57                	push   %r15
  205933:	41 56                	push   %r14
  205935:	41 55                	push   %r13
  205937:	41 54                	push   %r12
  205939:	53                   	push   %rbx
  20593a:	50                   	push   %rax
  20593b:	41 89 cc             	mov    %ecx,%r12d
  20593e:	89 d5                	mov    %edx,%ebp
  205940:	89 74 24 04          	mov    %esi,0x4(%rsp)
  205944:	49 89 ff             	mov    %rdi,%r15
  205947:	48 8b 5f 08          	mov    0x8(%rdi),%rbx
  20594b:	b8 e8 c9 9a 3b       	mov    $0x3b9ac9e8,%eax
  205950:	31 d2                	xor    %edx,%edx
  205952:	f7 f5                	div    %ebp
  205954:	41 89 c5             	mov    %eax,%r13d
  205957:	81 fd e9 c9 9a 3b    	cmp    $0x3b9ac9e9,%ebp
  20595d:	72 0f                	jb     20596e <alloc_sarray+0x3e>
  20595f:	49 8b 07             	mov    (%r15),%rax
  205962:	c7 40 28 48 00 00 00 	movl   $0x48,0x28(%rax)
  205969:	4c 89 ff             	mov    %r15,%rdi
  20596c:	ff 10                	callq  *(%rax)
  20596e:	44 89 e2             	mov    %r12d,%edx
  205971:	45 39 e5             	cmp    %r12d,%r13d
  205974:	45 0f 43 ec          	cmovae %r12d,%r13d
  205978:	44 89 ab a0 00 00 00 	mov    %r13d,0xa0(%rbx)
  20597f:	48 c1 e2 03          	shl    $0x3,%rdx
  205983:	4c 89 ff             	mov    %r15,%rdi
  205986:	8b 74 24 04          	mov    0x4(%rsp),%esi
  20598a:	e8 91 fd ff ff       	callq  205720 <alloc_small>
  20598f:	48 89 c3             	mov    %rax,%rbx
  205992:	45 85 e4             	test   %r12d,%r12d
  205995:	0f 84 be 00 00 00    	je     205a59 <alloc_sarray+0x129>
  20599b:	89 ed                	mov    %ebp,%ebp
  20599d:	45 31 f6             	xor    %r14d,%r14d
  2059a0:	eb 17                	jmp    2059b9 <alloc_sarray+0x89>
  2059a2:	90                   	nop
  2059a3:	90                   	nop
  2059a4:	90                   	nop
  2059a5:	90                   	nop
  2059a6:	90                   	nop
  2059a7:	90                   	nop
  2059a8:	90                   	nop
  2059a9:	90                   	nop
  2059aa:	90                   	nop
  2059ab:	90                   	nop
  2059ac:	90                   	nop
  2059ad:	90                   	nop
  2059ae:	90                   	nop
  2059af:	90                   	nop
  2059b0:	45 39 e6             	cmp    %r12d,%r14d
  2059b3:	0f 83 a0 00 00 00    	jae    205a59 <alloc_sarray+0x129>
  2059b9:	44 89 e8             	mov    %r13d,%eax
  2059bc:	45 89 e5             	mov    %r12d,%r13d
  2059bf:	45 29 f5             	sub    %r14d,%r13d
  2059c2:	44 39 e8             	cmp    %r13d,%eax
  2059c5:	44 0f 42 e8          	cmovb  %eax,%r13d
  2059c9:	4c 89 ea             	mov    %r13,%rdx
  2059cc:	48 0f af d5          	imul   %rbp,%rdx
  2059d0:	4c 89 ff             	mov    %r15,%rdi
  2059d3:	8b 74 24 04          	mov    0x4(%rsp),%esi
  2059d7:	e8 94 fe ff ff       	callq  205870 <alloc_large>
  2059dc:	45 85 ed             	test   %r13d,%r13d
  2059df:	74 cf                	je     2059b0 <alloc_sarray+0x80>
  2059e1:	41 8d 55 ff          	lea    -0x1(%r13),%edx
  2059e5:	44 89 ee             	mov    %r13d,%esi
  2059e8:	83 e6 03             	and    $0x3,%esi
  2059eb:	74 23                	je     205a10 <alloc_sarray+0xe0>
  2059ed:	89 f1                	mov    %esi,%ecx
  2059ef:	90                   	nop
  2059f0:	44 89 f7             	mov    %r14d,%edi
  2059f3:	41 83 c6 01          	add    $0x1,%r14d
  2059f7:	48 89 04 fb          	mov    %rax,(%rbx,%rdi,8)
  2059fb:	48 01 e8             	add    %rbp,%rax
  2059fe:	83 c1 ff             	add    $0xffffffff,%ecx
  205a01:	75 ed                	jne    2059f0 <alloc_sarray+0xc0>
  205a03:	44 89 e9             	mov    %r13d,%ecx
  205a06:	29 f1                	sub    %esi,%ecx
  205a08:	83 fa 03             	cmp    $0x3,%edx
  205a0b:	73 13                	jae    205a20 <alloc_sarray+0xf0>
  205a0d:	eb a1                	jmp    2059b0 <alloc_sarray+0x80>
  205a0f:	90                   	nop
  205a10:	44 89 e9             	mov    %r13d,%ecx
  205a13:	83 fa 03             	cmp    $0x3,%edx
  205a16:	72 98                	jb     2059b0 <alloc_sarray+0x80>
  205a18:	90                   	nop
  205a19:	90                   	nop
  205a1a:	90                   	nop
  205a1b:	90                   	nop
  205a1c:	90                   	nop
  205a1d:	90                   	nop
  205a1e:	90                   	nop
  205a1f:	90                   	nop
  205a20:	41 8d 56 01          	lea    0x1(%r14),%edx
  205a24:	44 89 f6             	mov    %r14d,%esi
  205a27:	48 89 04 f3          	mov    %rax,(%rbx,%rsi,8)
  205a2b:	41 8d 76 02          	lea    0x2(%r14),%esi
  205a2f:	48 01 e8             	add    %rbp,%rax
  205a32:	48 89 04 d3          	mov    %rax,(%rbx,%rdx,8)
  205a36:	41 8d 56 03          	lea    0x3(%r14),%edx
  205a3a:	48 01 e8             	add    %rbp,%rax
  205a3d:	48 89 04 f3          	mov    %rax,(%rbx,%rsi,8)
  205a41:	41 83 c6 04          	add    $0x4,%r14d
  205a45:	48 01 e8             	add    %rbp,%rax
  205a48:	48 89 04 d3          	mov    %rax,(%rbx,%rdx,8)
  205a4c:	48 01 e8             	add    %rbp,%rax
  205a4f:	83 c1 fc             	add    $0xfffffffc,%ecx
  205a52:	75 cc                	jne    205a20 <alloc_sarray+0xf0>
  205a54:	e9 57 ff ff ff       	jmpq   2059b0 <alloc_sarray+0x80>
  205a59:	48 89 d8             	mov    %rbx,%rax
  205a5c:	48 83 c4 08          	add    $0x8,%rsp
  205a60:	5b                   	pop    %rbx
  205a61:	41 5c                	pop    %r12
  205a63:	41 5d                	pop    %r13
  205a65:	41 5e                	pop    %r14
  205a67:	41 5f                	pop    %r15
  205a69:	5d                   	pop    %rbp
  205a6a:	c3                   	retq   
  205a6b:	cc                   	int3   
  205a6c:	cc                   	int3   
  205a6d:	cc                   	int3   
  205a6e:	cc                   	int3   
  205a6f:	cc                   	int3   

0000000000205a70 <alloc_barray>:
  205a70:	55                   	push   %rbp
  205a71:	41 57                	push   %r15
  205a73:	41 56                	push   %r14
  205a75:	41 55                	push   %r13
  205a77:	41 54                	push   %r12
  205a79:	53                   	push   %rbx
  205a7a:	50                   	push   %rax
  205a7b:	41 89 cc             	mov    %ecx,%r12d
  205a7e:	41 89 f6             	mov    %esi,%r14d
  205a81:	48 89 fb             	mov    %rdi,%rbx
  205a84:	4c 8b 7f 08          	mov    0x8(%rdi),%r15
  205a88:	89 d5                	mov    %edx,%ebp
  205a8a:	48 c1 e5 07          	shl    $0x7,%rbp
  205a8e:	b8 e8 c9 9a 3b       	mov    $0x3b9ac9e8,%eax
  205a93:	31 d2                	xor    %edx,%edx
  205a95:	48 f7 f5             	div    %rbp
  205a98:	49 89 c5             	mov    %rax,%r13
  205a9b:	48 85 c0             	test   %rax,%rax
  205a9e:	7f 0f                	jg     205aaf <alloc_barray+0x3f>
  205aa0:	48 8b 03             	mov    (%rbx),%rax
  205aa3:	c7 40 28 48 00 00 00 	movl   $0x48,0x28(%rax)
  205aaa:	48 89 df             	mov    %rbx,%rdi
  205aad:	ff 10                	callq  *(%rax)
  205aaf:	44 89 e2             	mov    %r12d,%edx
  205ab2:	49 39 d5             	cmp    %rdx,%r13
  205ab5:	45 0f 4d ec          	cmovge %r12d,%r13d
  205ab9:	45 89 af a0 00 00 00 	mov    %r13d,0xa0(%r15)
  205ac0:	48 c1 e2 03          	shl    $0x3,%rdx
  205ac4:	48 89 1c 24          	mov    %rbx,(%rsp)
  205ac8:	48 89 df             	mov    %rbx,%rdi
  205acb:	45 89 f7             	mov    %r14d,%r15d
  205ace:	44 89 f6             	mov    %r14d,%esi
  205ad1:	e8 4a fc ff ff       	callq  205720 <alloc_small>
  205ad6:	48 89 c3             	mov    %rax,%rbx
  205ad9:	45 85 e4             	test   %r12d,%r12d
  205adc:	0f 84 b7 00 00 00    	je     205b99 <alloc_barray+0x129>
  205ae2:	45 31 f6             	xor    %r14d,%r14d
  205ae5:	eb 12                	jmp    205af9 <alloc_barray+0x89>
  205ae7:	90                   	nop
  205ae8:	90                   	nop
  205ae9:	90                   	nop
  205aea:	90                   	nop
  205aeb:	90                   	nop
  205aec:	90                   	nop
  205aed:	90                   	nop
  205aee:	90                   	nop
  205aef:	90                   	nop
  205af0:	45 39 e6             	cmp    %r12d,%r14d
  205af3:	0f 83 a0 00 00 00    	jae    205b99 <alloc_barray+0x129>
  205af9:	44 89 e8             	mov    %r13d,%eax
  205afc:	45 89 e5             	mov    %r12d,%r13d
  205aff:	45 29 f5             	sub    %r14d,%r13d
  205b02:	44 39 e8             	cmp    %r13d,%eax
  205b05:	44 0f 42 e8          	cmovb  %eax,%r13d
  205b09:	48 89 ea             	mov    %rbp,%rdx
  205b0c:	49 0f af d5          	imul   %r13,%rdx
  205b10:	48 8b 3c 24          	mov    (%rsp),%rdi
  205b14:	44 89 fe             	mov    %r15d,%esi
  205b17:	e8 54 fd ff ff       	callq  205870 <alloc_large>
  205b1c:	45 85 ed             	test   %r13d,%r13d
  205b1f:	74 cf                	je     205af0 <alloc_barray+0x80>
  205b21:	41 8d 55 ff          	lea    -0x1(%r13),%edx
  205b25:	44 89 ee             	mov    %r13d,%esi
  205b28:	83 e6 03             	and    $0x3,%esi
  205b2b:	74 23                	je     205b50 <alloc_barray+0xe0>
  205b2d:	89 f1                	mov    %esi,%ecx
  205b2f:	90                   	nop
  205b30:	44 89 f7             	mov    %r14d,%edi
  205b33:	41 83 c6 01          	add    $0x1,%r14d
  205b37:	48 89 04 fb          	mov    %rax,(%rbx,%rdi,8)
  205b3b:	48 01 e8             	add    %rbp,%rax
  205b3e:	83 c1 ff             	add    $0xffffffff,%ecx
  205b41:	75 ed                	jne    205b30 <alloc_barray+0xc0>
  205b43:	44 89 e9             	mov    %r13d,%ecx
  205b46:	29 f1                	sub    %esi,%ecx
  205b48:	83 fa 03             	cmp    $0x3,%edx
  205b4b:	73 13                	jae    205b60 <alloc_barray+0xf0>
  205b4d:	eb a1                	jmp    205af0 <alloc_barray+0x80>
  205b4f:	90                   	nop
  205b50:	44 89 e9             	mov    %r13d,%ecx
  205b53:	83 fa 03             	cmp    $0x3,%edx
  205b56:	72 98                	jb     205af0 <alloc_barray+0x80>
  205b58:	90                   	nop
  205b59:	90                   	nop
  205b5a:	90                   	nop
  205b5b:	90                   	nop
  205b5c:	90                   	nop
  205b5d:	90                   	nop
  205b5e:	90                   	nop
  205b5f:	90                   	nop
  205b60:	41 8d 56 01          	lea    0x1(%r14),%edx
  205b64:	44 89 f6             	mov    %r14d,%esi
  205b67:	48 89 04 f3          	mov    %rax,(%rbx,%rsi,8)
  205b6b:	41 8d 76 02          	lea    0x2(%r14),%esi
  205b6f:	48 01 e8             	add    %rbp,%rax
  205b72:	48 89 04 d3          	mov    %rax,(%rbx,%rdx,8)
  205b76:	41 8d 56 03          	lea    0x3(%r14),%edx
  205b7a:	48 01 e8             	add    %rbp,%rax
  205b7d:	48 89 04 f3          	mov    %rax,(%rbx,%rsi,8)
  205b81:	41 83 c6 04          	add    $0x4,%r14d
  205b85:	48 01 e8             	add    %rbp,%rax
  205b88:	48 89 04 d3          	mov    %rax,(%rbx,%rdx,8)
  205b8c:	48 01 e8             	add    %rbp,%rax
  205b8f:	83 c1 fc             	add    $0xfffffffc,%ecx
  205b92:	75 cc                	jne    205b60 <alloc_barray+0xf0>
  205b94:	e9 57 ff ff ff       	jmpq   205af0 <alloc_barray+0x80>
  205b99:	48 89 d8             	mov    %rbx,%rax
  205b9c:	48 83 c4 08          	add    $0x8,%rsp
  205ba0:	5b                   	pop    %rbx
  205ba1:	41 5c                	pop    %r12
  205ba3:	41 5d                	pop    %r13
  205ba5:	41 5e                	pop    %r14
  205ba7:	41 5f                	pop    %r15
  205ba9:	5d                   	pop    %rbp
  205baa:	c3                   	retq   
  205bab:	cc                   	int3   
  205bac:	cc                   	int3   
  205bad:	cc                   	int3   
  205bae:	cc                   	int3   
  205baf:	cc                   	int3   

0000000000205bb0 <request_virt_sarray>:
  205bb0:	55                   	push   %rbp
  205bb1:	41 57                	push   %r15
  205bb3:	41 56                	push   %r14
  205bb5:	41 55                	push   %r13
  205bb7:	41 54                	push   %r12
  205bb9:	53                   	push   %rbx
  205bba:	50                   	push   %rax
  205bbb:	44 89 4c 24 04       	mov    %r9d,0x4(%rsp)
  205bc0:	45 89 c5             	mov    %r8d,%r13d
  205bc3:	41 89 cc             	mov    %ecx,%r12d
  205bc6:	41 89 d7             	mov    %edx,%r15d
  205bc9:	48 89 fb             	mov    %rdi,%rbx
  205bcc:	4c 8b 77 08          	mov    0x8(%rdi),%r14
  205bd0:	83 fe 01             	cmp    $0x1,%esi
  205bd3:	75 0f                	jne    205be4 <request_virt_sarray+0x34>
  205bd5:	ba 98 00 00 00       	mov    $0x98,%edx
  205bda:	48 89 df             	mov    %rbx,%rdi
  205bdd:	be 01 00 00 00       	mov    $0x1,%esi
  205be2:	eb 21                	jmp    205c05 <request_virt_sarray+0x55>
  205be4:	89 f5                	mov    %esi,%ebp
  205be6:	48 8b 03             	mov    (%rbx),%rax
  205be9:	c7 40 28 0f 00 00 00 	movl   $0xf,0x28(%rax)
  205bf0:	89 70 2c             	mov    %esi,0x2c(%rax)
  205bf3:	48 8b 03             	mov    (%rbx),%rax
  205bf6:	48 89 df             	mov    %rbx,%rdi
  205bf9:	ff 10                	callq  *(%rax)
  205bfb:	ba 98 00 00 00       	mov    $0x98,%edx
  205c00:	48 89 df             	mov    %rbx,%rdi
  205c03:	89 ee                	mov    %ebp,%esi
  205c05:	e8 16 fb ff ff       	callq  205720 <alloc_small>
  205c0a:	48 c7 00 00 00 00 00 	movq   $0x0,(%rax)
  205c11:	44 89 68 08          	mov    %r13d,0x8(%rax)
  205c15:	44 89 60 0c          	mov    %r12d,0xc(%rax)
  205c19:	8b 4c 24 04          	mov    0x4(%rsp),%ecx
  205c1d:	89 48 10             	mov    %ecx,0x10(%rax)
  205c20:	44 89 78 24          	mov    %r15d,0x24(%rax)
  205c24:	c7 40 2c 00 00 00 00 	movl   $0x0,0x2c(%rax)
  205c2b:	49 8b 8e 88 00 00 00 	mov    0x88(%r14),%rcx
  205c32:	48 89 48 30          	mov    %rcx,0x30(%rax)
  205c36:	49 89 86 88 00 00 00 	mov    %rax,0x88(%r14)
  205c3d:	48 83 c4 08          	add    $0x8,%rsp
  205c41:	5b                   	pop    %rbx
  205c42:	41 5c                	pop    %r12
  205c44:	41 5d                	pop    %r13
  205c46:	41 5e                	pop    %r14
  205c48:	41 5f                	pop    %r15
  205c4a:	5d                   	pop    %rbp
  205c4b:	c3                   	retq   
  205c4c:	cc                   	int3   
  205c4d:	cc                   	int3   
  205c4e:	cc                   	int3   
  205c4f:	cc                   	int3   

0000000000205c50 <request_virt_barray>:
  205c50:	55                   	push   %rbp
  205c51:	41 57                	push   %r15
  205c53:	41 56                	push   %r14
  205c55:	41 55                	push   %r13
  205c57:	41 54                	push   %r12
  205c59:	53                   	push   %rbx
  205c5a:	50                   	push   %rax
  205c5b:	44 89 4c 24 04       	mov    %r9d,0x4(%rsp)
  205c60:	45 89 c5             	mov    %r8d,%r13d
  205c63:	41 89 cc             	mov    %ecx,%r12d
  205c66:	41 89 d7             	mov    %edx,%r15d
  205c69:	48 89 fb             	mov    %rdi,%rbx
  205c6c:	4c 8b 77 08          	mov    0x8(%rdi),%r14
  205c70:	83 fe 01             	cmp    $0x1,%esi
  205c73:	75 0f                	jne    205c84 <request_virt_barray+0x34>
  205c75:	ba 98 00 00 00       	mov    $0x98,%edx
  205c7a:	48 89 df             	mov    %rbx,%rdi
  205c7d:	be 01 00 00 00       	mov    $0x1,%esi
  205c82:	eb 21                	jmp    205ca5 <request_virt_barray+0x55>
  205c84:	89 f5                	mov    %esi,%ebp
  205c86:	48 8b 03             	mov    (%rbx),%rax
  205c89:	c7 40 28 0f 00 00 00 	movl   $0xf,0x28(%rax)
  205c90:	89 70 2c             	mov    %esi,0x2c(%rax)
  205c93:	48 8b 03             	mov    (%rbx),%rax
  205c96:	48 89 df             	mov    %rbx,%rdi
  205c99:	ff 10                	callq  *(%rax)
  205c9b:	ba 98 00 00 00       	mov    $0x98,%edx
  205ca0:	48 89 df             	mov    %rbx,%rdi
  205ca3:	89 ee                	mov    %ebp,%esi
  205ca5:	e8 76 fa ff ff       	callq  205720 <alloc_small>
  205caa:	48 c7 00 00 00 00 00 	movq   $0x0,(%rax)
  205cb1:	44 89 68 08          	mov    %r13d,0x8(%rax)
  205cb5:	44 89 60 0c          	mov    %r12d,0xc(%rax)
  205cb9:	8b 4c 24 04          	mov    0x4(%rsp),%ecx
  205cbd:	89 48 10             	mov    %ecx,0x10(%rax)
  205cc0:	44 89 78 24          	mov    %r15d,0x24(%rax)
  205cc4:	c7 40 2c 00 00 00 00 	movl   $0x0,0x2c(%rax)
  205ccb:	49 8b 8e 90 00 00 00 	mov    0x90(%r14),%rcx
  205cd2:	48 89 48 30          	mov    %rcx,0x30(%rax)
  205cd6:	49 89 86 90 00 00 00 	mov    %rax,0x90(%r14)
  205cdd:	48 83 c4 08          	add    $0x8,%rsp
  205ce1:	5b                   	pop    %rbx
  205ce2:	41 5c                	pop    %r12
  205ce4:	41 5d                	pop    %r13
  205ce6:	41 5e                	pop    %r14
  205ce8:	41 5f                	pop    %r15
  205cea:	5d                   	pop    %rbp
  205ceb:	c3                   	retq   
  205cec:	cc                   	int3   
  205ced:	cc                   	int3   
  205cee:	cc                   	int3   
  205cef:	cc                   	int3   

0000000000205cf0 <realize_virt_arrays>:
  205cf0:	55                   	push   %rbp
  205cf1:	41 57                	push   %r15
  205cf3:	41 56                	push   %r14
  205cf5:	41 55                	push   %r13
  205cf7:	41 54                	push   %r12
  205cf9:	53                   	push   %rbx
  205cfa:	50                   	push   %rax
  205cfb:	49 89 fe             	mov    %rdi,%r14
  205cfe:	48 8b 47 08          	mov    0x8(%rdi),%rax
  205d02:	48 89 04 24          	mov    %rax,(%rsp)
  205d06:	48 8b 98 88 00 00 00 	mov    0x88(%rax),%rbx
  205d0d:	48 85 db             	test   %rbx,%rbx
  205d10:	74 46                	je     205d58 <realize_virt_arrays+0x68>
  205d12:	45 31 ff             	xor    %r15d,%r15d
  205d15:	48 89 d8             	mov    %rbx,%rax
  205d18:	45 31 ed             	xor    %r13d,%r13d
  205d1b:	48 83 38 00          	cmpq   $0x0,(%rax)
  205d1f:	74 1e                	je     205d3f <realize_virt_arrays+0x4f>
  205d21:	90                   	nop
  205d22:	90                   	nop
  205d23:	90                   	nop
  205d24:	90                   	nop
  205d25:	90                   	nop
  205d26:	90                   	nop
  205d27:	90                   	nop
  205d28:	90                   	nop
  205d29:	90                   	nop
  205d2a:	90                   	nop
  205d2b:	90                   	nop
  205d2c:	90                   	nop
  205d2d:	90                   	nop
  205d2e:	90                   	nop
  205d2f:	90                   	nop
  205d30:	48 8b 40 30          	mov    0x30(%rax),%rax
  205d34:	48 85 c0             	test   %rax,%rax
  205d37:	74 25                	je     205d5e <realize_virt_arrays+0x6e>
  205d39:	48 83 38 00          	cmpq   $0x0,(%rax)
  205d3d:	75 f1                	jne    205d30 <realize_virt_arrays+0x40>
  205d3f:	8b 48 10             	mov    0x10(%rax),%ecx
  205d42:	8b 50 08             	mov    0x8(%rax),%edx
  205d45:	8b 70 0c             	mov    0xc(%rax),%esi
  205d48:	48 0f af ce          	imul   %rsi,%rcx
  205d4c:	49 01 cf             	add    %rcx,%r15
  205d4f:	48 0f af d6          	imul   %rsi,%rdx
  205d53:	49 01 d5             	add    %rdx,%r13
  205d56:	eb d8                	jmp    205d30 <realize_virt_arrays+0x40>
  205d58:	45 31 ed             	xor    %r13d,%r13d
  205d5b:	45 31 ff             	xor    %r15d,%r15d
  205d5e:	48 8b 04 24          	mov    (%rsp),%rax
  205d62:	48 8b a8 90 00 00 00 	mov    0x90(%rax),%rbp
  205d69:	48 85 ed             	test   %rbp,%rbp
  205d6c:	74 42                	je     205db0 <realize_virt_arrays+0xc0>
  205d6e:	48 89 e8             	mov    %rbp,%rax
  205d71:	48 83 38 00          	cmpq   $0x0,(%rax)
  205d75:	74 18                	je     205d8f <realize_virt_arrays+0x9f>
  205d77:	90                   	nop
  205d78:	90                   	nop
  205d79:	90                   	nop
  205d7a:	90                   	nop
  205d7b:	90                   	nop
  205d7c:	90                   	nop
  205d7d:	90                   	nop
  205d7e:	90                   	nop
  205d7f:	90                   	nop
  205d80:	48 8b 40 30          	mov    0x30(%rax),%rax
  205d84:	48 85 c0             	test   %rax,%rax
  205d87:	74 27                	je     205db0 <realize_virt_arrays+0xc0>
  205d89:	48 83 38 00          	cmpq   $0x0,(%rax)
  205d8d:	75 f1                	jne    205d80 <realize_virt_arrays+0x90>
  205d8f:	8b 48 10             	mov    0x10(%rax),%ecx
  205d92:	8b 50 08             	mov    0x8(%rax),%edx
  205d95:	8b 70 0c             	mov    0xc(%rax),%esi
  205d98:	48 0f af ce          	imul   %rsi,%rcx
  205d9c:	48 c1 e1 07          	shl    $0x7,%rcx
  205da0:	49 01 cf             	add    %rcx,%r15
  205da3:	48 0f af d6          	imul   %rsi,%rdx
  205da7:	48 c1 e2 07          	shl    $0x7,%rdx
  205dab:	49 01 d5             	add    %rdx,%r13
  205dae:	eb d0                	jmp    205d80 <realize_virt_arrays+0x90>
  205db0:	4d 85 ff             	test   %r15,%r15
  205db3:	0f 8e 43 01 00 00    	jle    205efc <realize_virt_arrays+0x20c>
  205db9:	48 8b 04 24          	mov    (%rsp),%rax
  205dbd:	48 8b 90 98 00 00 00 	mov    0x98(%rax),%rdx
  205dc4:	4c 89 ff             	mov    %r15,%rdi
  205dc7:	4c 89 ee             	mov    %r13,%rsi
  205dca:	e8 e1 09 00 00       	callq  2067b0 <jpeg_mem_available>
  205dcf:	41 bc 00 ca 9a 3b    	mov    $0x3b9aca00,%r12d
  205dd5:	4c 39 e8             	cmp    %r13,%rax
  205dd8:	7d 12                	jge    205dec <realize_virt_arrays+0xfc>
  205dda:	48 99                	cqto   
  205ddc:	49 f7 ff             	idiv   %r15
  205ddf:	48 85 c0             	test   %rax,%rax
  205de2:	41 bc 01 00 00 00    	mov    $0x1,%r12d
  205de8:	4c 0f 4f e0          	cmovg  %rax,%r12
  205dec:	48 85 db             	test   %rbx,%rbx
  205def:	75 5d                	jne    205e4e <realize_virt_arrays+0x15e>
  205df1:	e9 e1 00 00 00       	jmpq   205ed7 <realize_virt_arrays+0x1e7>
  205df6:	41 0f af f4          	imul   %r12d,%esi
  205dfa:	89 73 14             	mov    %esi,0x14(%rbx)
  205dfd:	8b 73 0c             	mov    0xc(%rbx),%esi
  205e00:	48 0f af f1          	imul   %rcx,%rsi
  205e04:	4c 89 f7             	mov    %r14,%rdi
  205e07:	e8 b4 09 00 00       	callq  2067c0 <jpeg_open_backing_store>
  205e0c:	c7 43 2c 01 00 00 00 	movl   $0x1,0x2c(%rbx)
  205e13:	8b 4b 14             	mov    0x14(%rbx),%ecx
  205e16:	8b 53 0c             	mov    0xc(%rbx),%edx
  205e19:	4c 89 f7             	mov    %r14,%rdi
  205e1c:	be 01 00 00 00       	mov    $0x1,%esi
  205e21:	e8 0a fb ff ff       	callq  205930 <alloc_sarray>
  205e26:	48 89 03             	mov    %rax,(%rbx)
  205e29:	48 8b 04 24          	mov    (%rsp),%rax
  205e2d:	8b 80 a0 00 00 00    	mov    0xa0(%rax),%eax
  205e33:	89 43 18             	mov    %eax,0x18(%rbx)
  205e36:	48 c7 43 1c 00 00 00 	movq   $0x0,0x1c(%rbx)
  205e3d:	00 
  205e3e:	c7 43 28 00 00 00 00 	movl   $0x0,0x28(%rbx)
  205e45:	48 8b 5b 30          	mov    0x30(%rbx),%rbx
  205e49:	48 85 db             	test   %rbx,%rbx
  205e4c:	74 1f                	je     205e6d <realize_virt_arrays+0x17d>
  205e4e:	48 83 3b 00          	cmpq   $0x0,(%rbx)
  205e52:	75 f1                	jne    205e45 <realize_virt_arrays+0x155>
  205e54:	8b 4b 08             	mov    0x8(%rbx),%ecx
  205e57:	8b 73 10             	mov    0x10(%rbx),%esi
  205e5a:	48 8d 41 ff          	lea    -0x1(%rcx),%rax
  205e5e:	48 99                	cqto   
  205e60:	48 f7 fe             	idiv   %rsi
  205e63:	4c 39 e0             	cmp    %r12,%rax
  205e66:	7d 8e                	jge    205df6 <realize_virt_arrays+0x106>
  205e68:	89 4b 14             	mov    %ecx,0x14(%rbx)
  205e6b:	eb a9                	jmp    205e16 <realize_virt_arrays+0x126>
  205e6d:	48 8b 04 24          	mov    (%rsp),%rax
  205e71:	48 8b a8 90 00 00 00 	mov    0x90(%rax),%rbp
  205e78:	48 85 ed             	test   %rbp,%rbp
  205e7b:	75 5f                	jne    205edc <realize_virt_arrays+0x1ec>
  205e7d:	eb 7d                	jmp    205efc <realize_virt_arrays+0x20c>
  205e7f:	41 0f af f4          	imul   %r12d,%esi
  205e83:	89 75 14             	mov    %esi,0x14(%rbp)
  205e86:	8b 75 0c             	mov    0xc(%rbp),%esi
  205e89:	48 0f af f1          	imul   %rcx,%rsi
  205e8d:	48 c1 e6 07          	shl    $0x7,%rsi
  205e91:	4c 89 f7             	mov    %r14,%rdi
  205e94:	e8 27 09 00 00       	callq  2067c0 <jpeg_open_backing_store>
  205e99:	c7 45 2c 01 00 00 00 	movl   $0x1,0x2c(%rbp)
  205ea0:	8b 4d 14             	mov    0x14(%rbp),%ecx
  205ea3:	8b 55 0c             	mov    0xc(%rbp),%edx
  205ea6:	4c 89 f7             	mov    %r14,%rdi
  205ea9:	be 01 00 00 00       	mov    $0x1,%esi
  205eae:	e8 bd fb ff ff       	callq  205a70 <alloc_barray>
  205eb3:	48 89 45 00          	mov    %rax,0x0(%rbp)
  205eb7:	48 8b 04 24          	mov    (%rsp),%rax
  205ebb:	8b 80 a0 00 00 00    	mov    0xa0(%rax),%eax
  205ec1:	89 45 18             	mov    %eax,0x18(%rbp)
  205ec4:	48 c7 45 1c 00 00 00 	movq   $0x0,0x1c(%rbp)
  205ecb:	00 
  205ecc:	c7 45 28 00 00 00 00 	movl   $0x0,0x28(%rbp)
  205ed3:	48 8b 6d 30          	mov    0x30(%rbp),%rbp
  205ed7:	48 85 ed             	test   %rbp,%rbp
  205eda:	74 20                	je     205efc <realize_virt_arrays+0x20c>
  205edc:	48 83 7d 00 00       	cmpq   $0x0,0x0(%rbp)
  205ee1:	75 f0                	jne    205ed3 <realize_virt_arrays+0x1e3>
  205ee3:	8b 4d 08             	mov    0x8(%rbp),%ecx
  205ee6:	8b 75 10             	mov    0x10(%rbp),%esi
  205ee9:	48 8d 41 ff          	lea    -0x1(%rcx),%rax
  205eed:	48 99                	cqto   
  205eef:	48 f7 fe             	idiv   %rsi
  205ef2:	4c 39 e0             	cmp    %r12,%rax
  205ef5:	7d 88                	jge    205e7f <realize_virt_arrays+0x18f>
  205ef7:	89 4d 14             	mov    %ecx,0x14(%rbp)
  205efa:	eb a7                	jmp    205ea3 <realize_virt_arrays+0x1b3>
  205efc:	48 83 c4 08          	add    $0x8,%rsp
  205f00:	5b                   	pop    %rbx
  205f01:	41 5c                	pop    %r12
  205f03:	41 5d                	pop    %r13
  205f05:	41 5e                	pop    %r14
  205f07:	41 5f                	pop    %r15
  205f09:	5d                   	pop    %rbp
  205f0a:	c3                   	retq   
  205f0b:	cc                   	int3   
  205f0c:	cc                   	int3   
  205f0d:	cc                   	int3   
  205f0e:	cc                   	int3   
  205f0f:	cc                   	int3   

0000000000205f10 <access_virt_sarray>:
  205f10:	55                   	push   %rbp
  205f11:	41 57                	push   %r15
  205f13:	41 56                	push   %r14
  205f15:	41 55                	push   %r13
  205f17:	41 54                	push   %r12
  205f19:	53                   	push   %rbx
  205f1a:	48 83 ec 18          	sub    $0x18,%rsp
  205f1e:	44 89 44 24 0c       	mov    %r8d,0xc(%rsp)
  205f23:	41 89 d6             	mov    %edx,%r14d
  205f26:	49 89 f4             	mov    %rsi,%r12
  205f29:	48 89 fd             	mov    %rdi,%rbp
  205f2c:	42 8d 1c 31          	lea    (%rcx,%r14,1),%ebx
  205f30:	3b 5e 08             	cmp    0x8(%rsi),%ebx
  205f33:	77 0e                	ja     205f43 <access_virt_sarray+0x33>
  205f35:	41 39 4c 24 10       	cmp    %ecx,0x10(%r12)
  205f3a:	72 07                	jb     205f43 <access_virt_sarray+0x33>
  205f3c:	49 83 3c 24 00       	cmpq   $0x0,(%r12)
  205f41:	75 10                	jne    205f53 <access_virt_sarray+0x43>
  205f43:	48 8b 45 00          	mov    0x0(%rbp),%rax
  205f47:	c7 40 28 17 00 00 00 	movl   $0x17,0x28(%rax)
  205f4e:	48 89 ef             	mov    %rbp,%rdi
  205f51:	ff 10                	callq  *(%rax)
  205f53:	41 8b 44 24 1c       	mov    0x1c(%r12),%eax
  205f58:	44 39 f0             	cmp    %r14d,%eax
  205f5b:	77 09                	ja     205f66 <access_virt_sarray+0x56>
  205f5d:	41 03 44 24 14       	add    0x14(%r12),%eax
  205f62:	39 c3                	cmp    %eax,%ebx
  205f64:	76 67                	jbe    205fcd <access_virt_sarray+0xbd>
  205f66:	41 83 7c 24 2c 00    	cmpl   $0x0,0x2c(%r12)
  205f6c:	75 10                	jne    205f7e <access_virt_sarray+0x6e>
  205f6e:	48 8b 45 00          	mov    0x0(%rbp),%rax
  205f72:	c7 40 28 47 00 00 00 	movl   $0x47,0x28(%rax)
  205f79:	48 89 ef             	mov    %rbp,%rdi
  205f7c:	ff 10                	callq  *(%rax)
  205f7e:	41 83 7c 24 28 00    	cmpl   $0x0,0x28(%r12)
  205f84:	74 19                	je     205f9f <access_virt_sarray+0x8f>
  205f86:	48 89 ef             	mov    %rbp,%rdi
  205f89:	4c 89 e6             	mov    %r12,%rsi
  205f8c:	ba 01 00 00 00       	mov    $0x1,%edx
  205f91:	e8 9a 06 00 00       	callq  206630 <do_sarray_io>
  205f96:	41 c7 44 24 28 00 00 	movl   $0x0,0x28(%r12)
  205f9d:	00 00 
  205f9f:	44 89 f0             	mov    %r14d,%eax
  205fa2:	45 39 74 24 1c       	cmp    %r14d,0x1c(%r12)
  205fa7:	72 12                	jb     205fbb <access_virt_sarray+0xab>
  205fa9:	89 d8                	mov    %ebx,%eax
  205fab:	41 8b 4c 24 14       	mov    0x14(%r12),%ecx
  205fb0:	48 29 c8             	sub    %rcx,%rax
  205fb3:	31 c9                	xor    %ecx,%ecx
  205fb5:	48 85 c0             	test   %rax,%rax
  205fb8:	0f 4e c1             	cmovle %ecx,%eax
  205fbb:	41 89 44 24 1c       	mov    %eax,0x1c(%r12)
  205fc0:	48 89 ef             	mov    %rbp,%rdi
  205fc3:	4c 89 e6             	mov    %r12,%rsi
  205fc6:	31 d2                	xor    %edx,%edx
  205fc8:	e8 63 06 00 00       	callq  206630 <do_sarray_io>
  205fcd:	41 8b 44 24 20       	mov    0x20(%r12),%eax
  205fd2:	39 d8                	cmp    %ebx,%eax
  205fd4:	0f 83 21 01 00 00    	jae    2060fb <access_virt_sarray+0x1eb>
  205fda:	44 39 f0             	cmp    %r14d,%eax
  205fdd:	73 20                	jae    205fff <access_virt_sarray+0xef>
  205fdf:	83 7c 24 0c 00       	cmpl   $0x0,0xc(%rsp)
  205fe4:	0f 84 ec 00 00 00    	je     2060d6 <access_virt_sarray+0x1c6>
  205fea:	48 8b 45 00          	mov    0x0(%rbp),%rax
  205fee:	c7 40 28 17 00 00 00 	movl   $0x17,0x28(%rax)
  205ff5:	48 89 ef             	mov    %rbp,%rdi
  205ff8:	ff 10                	callq  *(%rax)
  205ffa:	44 89 f0             	mov    %r14d,%eax
  205ffd:	eb 0b                	jmp    20600a <access_virt_sarray+0xfa>
  205fff:	83 7c 24 0c 00       	cmpl   $0x0,0xc(%rsp)
  206004:	0f 84 20 01 00 00    	je     20612a <access_virt_sarray+0x21a>
  20600a:	41 89 5c 24 20       	mov    %ebx,0x20(%r12)
  20600f:	b1 01                	mov    $0x1,%cl
  206011:	41 83 7c 24 24 00    	cmpl   $0x0,0x24(%r12)
  206017:	0f 84 ca 00 00 00    	je     2060e7 <access_virt_sarray+0x1d7>
  20601d:	41 8b 4c 24 1c       	mov    0x1c(%r12),%ecx
  206022:	29 c8                	sub    %ecx,%eax
  206024:	29 cb                	sub    %ecx,%ebx
  206026:	39 d8                	cmp    %ebx,%eax
  206028:	0f 83 cd 00 00 00    	jae    2060fb <access_virt_sarray+0x1eb>
  20602e:	45 8b 6c 24 0c       	mov    0xc(%r12),%r13d
  206033:	89 c5                	mov    %eax,%ebp
  206035:	41 89 df             	mov    %ebx,%r15d
  206038:	29 c3                	sub    %eax,%ebx
  20603a:	48 89 e8             	mov    %rbp,%rax
  20603d:	48 f7 d0             	not    %rax
  206040:	4c 01 f8             	add    %r15,%rax
  206043:	48 83 e3 03          	and    $0x3,%rbx
  206047:	48 89 44 24 10       	mov    %rax,0x10(%rsp)
  20604c:	74 1e                	je     20606c <access_virt_sarray+0x15c>
  20604e:	90                   	nop
  20604f:	90                   	nop
  206050:	49 8b 04 24          	mov    (%r12),%rax
  206054:	48 8b 3c e8          	mov    (%rax,%rbp,8),%rdi
  206058:	31 f6                	xor    %esi,%esi
  20605a:	4c 89 ea             	mov    %r13,%rdx
  20605d:	e8 1e ab 01 00       	callq  220b80 <memset@plt>
  206062:	48 83 c5 01          	add    $0x1,%rbp
  206066:	48 83 c3 ff          	add    $0xffffffffffffffff,%rbx
  20606a:	75 e4                	jne    206050 <access_virt_sarray+0x140>
  20606c:	48 83 7c 24 10 03    	cmpq   $0x3,0x10(%rsp)
  206072:	0f 82 83 00 00 00    	jb     2060fb <access_virt_sarray+0x1eb>
  206078:	90                   	nop
  206079:	90                   	nop
  20607a:	90                   	nop
  20607b:	90                   	nop
  20607c:	90                   	nop
  20607d:	90                   	nop
  20607e:	90                   	nop
  20607f:	90                   	nop
  206080:	49 8b 04 24          	mov    (%r12),%rax
  206084:	48 8b 3c e8          	mov    (%rax,%rbp,8),%rdi
  206088:	31 f6                	xor    %esi,%esi
  20608a:	4c 89 ea             	mov    %r13,%rdx
  20608d:	e8 ee aa 01 00       	callq  220b80 <memset@plt>
  206092:	49 8b 04 24          	mov    (%r12),%rax
  206096:	48 8b 7c e8 08       	mov    0x8(%rax,%rbp,8),%rdi
  20609b:	31 f6                	xor    %esi,%esi
  20609d:	4c 89 ea             	mov    %r13,%rdx
  2060a0:	e8 db aa 01 00       	callq  220b80 <memset@plt>
  2060a5:	49 8b 04 24          	mov    (%r12),%rax
  2060a9:	48 8b 7c e8 10       	mov    0x10(%rax,%rbp,8),%rdi
  2060ae:	31 f6                	xor    %esi,%esi
  2060b0:	4c 89 ea             	mov    %r13,%rdx
  2060b3:	e8 c8 aa 01 00       	callq  220b80 <memset@plt>
  2060b8:	49 8b 04 24          	mov    (%r12),%rax
  2060bc:	48 8b 7c e8 18       	mov    0x18(%rax,%rbp,8),%rdi
  2060c1:	31 f6                	xor    %esi,%esi
  2060c3:	4c 89 ea             	mov    %r13,%rdx
  2060c6:	e8 b5 aa 01 00       	callq  220b80 <memset@plt>
  2060cb:	48 83 c5 04          	add    $0x4,%rbp
  2060cf:	49 39 ef             	cmp    %rbp,%r15
  2060d2:	75 ac                	jne    206080 <access_virt_sarray+0x170>
  2060d4:	eb 25                	jmp    2060fb <access_virt_sarray+0x1eb>
  2060d6:	31 c9                	xor    %ecx,%ecx
  2060d8:	44 89 f0             	mov    %r14d,%eax
  2060db:	41 83 7c 24 24 00    	cmpl   $0x0,0x24(%r12)
  2060e1:	0f 85 36 ff ff ff    	jne    20601d <access_virt_sarray+0x10d>
  2060e7:	84 c9                	test   %cl,%cl
  2060e9:	75 10                	jne    2060fb <access_virt_sarray+0x1eb>
  2060eb:	48 8b 45 00          	mov    0x0(%rbp),%rax
  2060ef:	c7 40 28 17 00 00 00 	movl   $0x17,0x28(%rax)
  2060f6:	48 89 ef             	mov    %rbp,%rdi
  2060f9:	ff 10                	callq  *(%rax)
  2060fb:	83 7c 24 0c 00       	cmpl   $0x0,0xc(%rsp)
  206100:	74 09                	je     20610b <access_virt_sarray+0x1fb>
  206102:	41 c7 44 24 28 01 00 	movl   $0x1,0x28(%r12)
  206109:	00 00 
  20610b:	45 2b 74 24 1c       	sub    0x1c(%r12),%r14d
  206110:	49 c1 e6 03          	shl    $0x3,%r14
  206114:	4d 03 34 24          	add    (%r12),%r14
  206118:	4c 89 f0             	mov    %r14,%rax
  20611b:	48 83 c4 18          	add    $0x18,%rsp
  20611f:	5b                   	pop    %rbx
  206120:	41 5c                	pop    %r12
  206122:	41 5d                	pop    %r13
  206124:	41 5e                	pop    %r14
  206126:	41 5f                	pop    %r15
  206128:	5d                   	pop    %rbp
  206129:	c3                   	retq   
  20612a:	31 c9                	xor    %ecx,%ecx
  20612c:	41 83 7c 24 24 00    	cmpl   $0x0,0x24(%r12)
  206132:	0f 85 e5 fe ff ff    	jne    20601d <access_virt_sarray+0x10d>
  206138:	eb ad                	jmp    2060e7 <access_virt_sarray+0x1d7>
  20613a:	cc                   	int3   
  20613b:	cc                   	int3   
  20613c:	cc                   	int3   
  20613d:	cc                   	int3   
  20613e:	cc                   	int3   
  20613f:	cc                   	int3   

0000000000206140 <access_virt_barray>:
  206140:	55                   	push   %rbp
  206141:	41 57                	push   %r15
  206143:	41 56                	push   %r14
  206145:	41 55                	push   %r13
  206147:	41 54                	push   %r12
  206149:	53                   	push   %rbx
  20614a:	48 83 ec 18          	sub    $0x18,%rsp
  20614e:	44 89 44 24 0c       	mov    %r8d,0xc(%rsp)
  206153:	41 89 d6             	mov    %edx,%r14d
  206156:	49 89 f4             	mov    %rsi,%r12
  206159:	48 89 fd             	mov    %rdi,%rbp
  20615c:	42 8d 1c 31          	lea    (%rcx,%r14,1),%ebx
  206160:	3b 5e 08             	cmp    0x8(%rsi),%ebx
  206163:	77 0e                	ja     206173 <access_virt_barray+0x33>
  206165:	41 39 4c 24 10       	cmp    %ecx,0x10(%r12)
  20616a:	72 07                	jb     206173 <access_virt_barray+0x33>
  20616c:	49 83 3c 24 00       	cmpq   $0x0,(%r12)
  206171:	75 10                	jne    206183 <access_virt_barray+0x43>
  206173:	48 8b 45 00          	mov    0x0(%rbp),%rax
  206177:	c7 40 28 17 00 00 00 	movl   $0x17,0x28(%rax)
  20617e:	48 89 ef             	mov    %rbp,%rdi
  206181:	ff 10                	callq  *(%rax)
  206183:	41 8b 44 24 1c       	mov    0x1c(%r12),%eax
  206188:	44 39 f0             	cmp    %r14d,%eax
  20618b:	77 09                	ja     206196 <access_virt_barray+0x56>
  20618d:	41 03 44 24 14       	add    0x14(%r12),%eax
  206192:	39 c3                	cmp    %eax,%ebx
  206194:	76 67                	jbe    2061fd <access_virt_barray+0xbd>
  206196:	41 83 7c 24 2c 00    	cmpl   $0x0,0x2c(%r12)
  20619c:	75 10                	jne    2061ae <access_virt_barray+0x6e>
  20619e:	48 8b 45 00          	mov    0x0(%rbp),%rax
  2061a2:	c7 40 28 47 00 00 00 	movl   $0x47,0x28(%rax)
  2061a9:	48 89 ef             	mov    %rbp,%rdi
  2061ac:	ff 10                	callq  *(%rax)
  2061ae:	41 83 7c 24 28 00    	cmpl   $0x0,0x28(%r12)
  2061b4:	74 19                	je     2061cf <access_virt_barray+0x8f>
  2061b6:	48 89 ef             	mov    %rbp,%rdi
  2061b9:	4c 89 e6             	mov    %r12,%rsi
  2061bc:	ba 01 00 00 00       	mov    $0x1,%edx
  2061c1:	e8 4a 03 00 00       	callq  206510 <do_barray_io>
  2061c6:	41 c7 44 24 28 00 00 	movl   $0x0,0x28(%r12)
  2061cd:	00 00 
  2061cf:	44 89 f0             	mov    %r14d,%eax
  2061d2:	45 39 74 24 1c       	cmp    %r14d,0x1c(%r12)
  2061d7:	72 12                	jb     2061eb <access_virt_barray+0xab>
  2061d9:	89 d8                	mov    %ebx,%eax
  2061db:	41 8b 4c 24 14       	mov    0x14(%r12),%ecx
  2061e0:	48 29 c8             	sub    %rcx,%rax
  2061e3:	31 c9                	xor    %ecx,%ecx
  2061e5:	48 85 c0             	test   %rax,%rax
  2061e8:	0f 4e c1             	cmovle %ecx,%eax
  2061eb:	41 89 44 24 1c       	mov    %eax,0x1c(%r12)
  2061f0:	48 89 ef             	mov    %rbp,%rdi
  2061f3:	4c 89 e6             	mov    %r12,%rsi
  2061f6:	31 d2                	xor    %edx,%edx
  2061f8:	e8 13 03 00 00       	callq  206510 <do_barray_io>
  2061fd:	41 8b 44 24 20       	mov    0x20(%r12),%eax
  206202:	39 d8                	cmp    %ebx,%eax
  206204:	0f 83 31 01 00 00    	jae    20633b <access_virt_barray+0x1fb>
  20620a:	44 39 f0             	cmp    %r14d,%eax
  20620d:	73 20                	jae    20622f <access_virt_barray+0xef>
  20620f:	83 7c 24 0c 00       	cmpl   $0x0,0xc(%rsp)
  206214:	0f 84 fc 00 00 00    	je     206316 <access_virt_barray+0x1d6>
  20621a:	48 8b 45 00          	mov    0x0(%rbp),%rax
  20621e:	c7 40 28 17 00 00 00 	movl   $0x17,0x28(%rax)
  206225:	48 89 ef             	mov    %rbp,%rdi
  206228:	ff 10                	callq  *(%rax)
  20622a:	44 89 f0             	mov    %r14d,%eax
  20622d:	eb 0b                	jmp    20623a <access_virt_barray+0xfa>
  20622f:	83 7c 24 0c 00       	cmpl   $0x0,0xc(%rsp)
  206234:	0f 84 30 01 00 00    	je     20636a <access_virt_barray+0x22a>
  20623a:	41 89 5c 24 20       	mov    %ebx,0x20(%r12)
  20623f:	b1 01                	mov    $0x1,%cl
  206241:	41 83 7c 24 24 00    	cmpl   $0x0,0x24(%r12)
  206247:	0f 84 da 00 00 00    	je     206327 <access_virt_barray+0x1e7>
  20624d:	41 8b 4c 24 1c       	mov    0x1c(%r12),%ecx
  206252:	29 c8                	sub    %ecx,%eax
  206254:	29 cb                	sub    %ecx,%ebx
  206256:	39 d8                	cmp    %ebx,%eax
  206258:	0f 83 dd 00 00 00    	jae    20633b <access_virt_barray+0x1fb>
  20625e:	45 8b 6c 24 0c       	mov    0xc(%r12),%r13d
  206263:	49 c1 e5 07          	shl    $0x7,%r13
  206267:	89 c5                	mov    %eax,%ebp
  206269:	41 89 df             	mov    %ebx,%r15d
  20626c:	29 c3                	sub    %eax,%ebx
  20626e:	48 89 e8             	mov    %rbp,%rax
  206271:	48 f7 d0             	not    %rax
  206274:	4c 01 f8             	add    %r15,%rax
  206277:	48 83 e3 03          	and    $0x3,%rbx
  20627b:	48 89 44 24 10       	mov    %rax,0x10(%rsp)
  206280:	74 2a                	je     2062ac <access_virt_barray+0x16c>
  206282:	90                   	nop
  206283:	90                   	nop
  206284:	90                   	nop
  206285:	90                   	nop
  206286:	90                   	nop
  206287:	90                   	nop
  206288:	90                   	nop
  206289:	90                   	nop
  20628a:	90                   	nop
  20628b:	90                   	nop
  20628c:	90                   	nop
  20628d:	90                   	nop
  20628e:	90                   	nop
  20628f:	90                   	nop
  206290:	49 8b 04 24          	mov    (%r12),%rax
  206294:	48 8b 3c e8          	mov    (%rax,%rbp,8),%rdi
  206298:	31 f6                	xor    %esi,%esi
  20629a:	4c 89 ea             	mov    %r13,%rdx
  20629d:	e8 de a8 01 00       	callq  220b80 <memset@plt>
  2062a2:	48 83 c5 01          	add    $0x1,%rbp
  2062a6:	48 83 c3 ff          	add    $0xffffffffffffffff,%rbx
  2062aa:	75 e4                	jne    206290 <access_virt_barray+0x150>
  2062ac:	48 83 7c 24 10 03    	cmpq   $0x3,0x10(%rsp)
  2062b2:	0f 82 83 00 00 00    	jb     20633b <access_virt_barray+0x1fb>
  2062b8:	90                   	nop
  2062b9:	90                   	nop
  2062ba:	90                   	nop
  2062bb:	90                   	nop
  2062bc:	90                   	nop
  2062bd:	90                   	nop
  2062be:	90                   	nop
  2062bf:	90                   	nop
  2062c0:	49 8b 04 24          	mov    (%r12),%rax
  2062c4:	48 8b 3c e8          	mov    (%rax,%rbp,8),%rdi
  2062c8:	31 f6                	xor    %esi,%esi
  2062ca:	4c 89 ea             	mov    %r13,%rdx
  2062cd:	e8 ae a8 01 00       	callq  220b80 <memset@plt>
  2062d2:	49 8b 04 24          	mov    (%r12),%rax
  2062d6:	48 8b 7c e8 08       	mov    0x8(%rax,%rbp,8),%rdi
  2062db:	31 f6                	xor    %esi,%esi
  2062dd:	4c 89 ea             	mov    %r13,%rdx
  2062e0:	e8 9b a8 01 00       	callq  220b80 <memset@plt>
  2062e5:	49 8b 04 24          	mov    (%r12),%rax
  2062e9:	48 8b 7c e8 10       	mov    0x10(%rax,%rbp,8),%rdi
  2062ee:	31 f6                	xor    %esi,%esi
  2062f0:	4c 89 ea             	mov    %r13,%rdx
  2062f3:	e8 88 a8 01 00       	callq  220b80 <memset@plt>
  2062f8:	49 8b 04 24          	mov    (%r12),%rax
  2062fc:	48 8b 7c e8 18       	mov    0x18(%rax,%rbp,8),%rdi
  206301:	31 f6                	xor    %esi,%esi
  206303:	4c 89 ea             	mov    %r13,%rdx
  206306:	e8 75 a8 01 00       	callq  220b80 <memset@plt>
  20630b:	48 83 c5 04          	add    $0x4,%rbp
  20630f:	49 39 ef             	cmp    %rbp,%r15
  206312:	75 ac                	jne    2062c0 <access_virt_barray+0x180>
  206314:	eb 25                	jmp    20633b <access_virt_barray+0x1fb>
  206316:	31 c9                	xor    %ecx,%ecx
  206318:	44 89 f0             	mov    %r14d,%eax
  20631b:	41 83 7c 24 24 00    	cmpl   $0x0,0x24(%r12)
  206321:	0f 85 26 ff ff ff    	jne    20624d <access_virt_barray+0x10d>
  206327:	84 c9                	test   %cl,%cl
  206329:	75 10                	jne    20633b <access_virt_barray+0x1fb>
  20632b:	48 8b 45 00          	mov    0x0(%rbp),%rax
  20632f:	c7 40 28 17 00 00 00 	movl   $0x17,0x28(%rax)
  206336:	48 89 ef             	mov    %rbp,%rdi
  206339:	ff 10                	callq  *(%rax)
  20633b:	83 7c 24 0c 00       	cmpl   $0x0,0xc(%rsp)
  206340:	74 09                	je     20634b <access_virt_barray+0x20b>
  206342:	41 c7 44 24 28 01 00 	movl   $0x1,0x28(%r12)
  206349:	00 00 
  20634b:	45 2b 74 24 1c       	sub    0x1c(%r12),%r14d
  206350:	49 c1 e6 03          	shl    $0x3,%r14
  206354:	4d 03 34 24          	add    (%r12),%r14
  206358:	4c 89 f0             	mov    %r14,%rax
  20635b:	48 83 c4 18          	add    $0x18,%rsp
  20635f:	5b                   	pop    %rbx
  206360:	41 5c                	pop    %r12
  206362:	41 5d                	pop    %r13
  206364:	41 5e                	pop    %r14
  206366:	41 5f                	pop    %r15
  206368:	5d                   	pop    %rbp
  206369:	c3                   	retq   
  20636a:	31 c9                	xor    %ecx,%ecx
  20636c:	41 83 7c 24 24 00    	cmpl   $0x0,0x24(%r12)
  206372:	0f 85 d5 fe ff ff    	jne    20624d <access_virt_barray+0x10d>
  206378:	eb ad                	jmp    206327 <access_virt_barray+0x1e7>
  20637a:	cc                   	int3   
  20637b:	cc                   	int3   
  20637c:	cc                   	int3   
  20637d:	cc                   	int3   
  20637e:	cc                   	int3   
  20637f:	cc                   	int3   

0000000000206380 <free_pool>:
  206380:	55                   	push   %rbp
  206381:	41 57                	push   %r15
  206383:	41 56                	push   %r14
  206385:	41 54                	push   %r12
  206387:	53                   	push   %rbx
  206388:	41 89 f6             	mov    %esi,%r14d
  20638b:	49 89 ff             	mov    %rdi,%r15
  20638e:	4c 8b 67 08          	mov    0x8(%rdi),%r12
  206392:	83 fe 02             	cmp    $0x2,%esi
  206395:	72 1b                	jb     2063b2 <free_pool+0x32>
  206397:	49 8b 07             	mov    (%r15),%rax
  20639a:	c7 40 28 0f 00 00 00 	movl   $0xf,0x28(%rax)
  2063a1:	44 89 70 2c          	mov    %r14d,0x2c(%rax)
  2063a5:	49 8b 07             	mov    (%r15),%rax
  2063a8:	4c 89 ff             	mov    %r15,%rdi
  2063ab:	ff 10                	callq  *(%rax)
  2063ad:	e9 8c 00 00 00       	jmpq   20643e <free_pool+0xbe>
  2063b2:	41 83 fe 01          	cmp    $0x1,%r14d
  2063b6:	0f 85 82 00 00 00    	jne    20643e <free_pool+0xbe>
  2063bc:	49 8b 9c 24 88 00 00 	mov    0x88(%r12),%rbx
  2063c3:	00 
  2063c4:	48 85 db             	test   %rbx,%rbx
  2063c7:	75 10                	jne    2063d9 <free_pool+0x59>
  2063c9:	eb 27                	jmp    2063f2 <free_pool+0x72>
  2063cb:	90                   	nop
  2063cc:	90                   	nop
  2063cd:	90                   	nop
  2063ce:	90                   	nop
  2063cf:	90                   	nop
  2063d0:	48 8b 5b 30          	mov    0x30(%rbx),%rbx
  2063d4:	48 85 db             	test   %rbx,%rbx
  2063d7:	74 19                	je     2063f2 <free_pool+0x72>
  2063d9:	83 7b 2c 00          	cmpl   $0x0,0x2c(%rbx)
  2063dd:	74 f1                	je     2063d0 <free_pool+0x50>
  2063df:	c7 43 2c 00 00 00 00 	movl   $0x0,0x2c(%rbx)
  2063e6:	48 8d 73 38          	lea    0x38(%rbx),%rsi
  2063ea:	4c 89 ff             	mov    %r15,%rdi
  2063ed:	ff 53 48             	callq  *0x48(%rbx)
  2063f0:	eb de                	jmp    2063d0 <free_pool+0x50>
  2063f2:	49 c7 84 24 88 00 00 	movq   $0x0,0x88(%r12)
  2063f9:	00 00 00 00 00 
  2063fe:	49 8b 9c 24 90 00 00 	mov    0x90(%r12),%rbx
  206405:	00 
  206406:	48 85 db             	test   %rbx,%rbx
  206409:	75 0e                	jne    206419 <free_pool+0x99>
  20640b:	eb 25                	jmp    206432 <free_pool+0xb2>
  20640d:	90                   	nop
  20640e:	90                   	nop
  20640f:	90                   	nop
  206410:	48 8b 5b 30          	mov    0x30(%rbx),%rbx
  206414:	48 85 db             	test   %rbx,%rbx
  206417:	74 19                	je     206432 <free_pool+0xb2>
  206419:	83 7b 2c 00          	cmpl   $0x0,0x2c(%rbx)
  20641d:	74 f1                	je     206410 <free_pool+0x90>
  20641f:	c7 43 2c 00 00 00 00 	movl   $0x0,0x2c(%rbx)
  206426:	48 8d 73 38          	lea    0x38(%rbx),%rsi
  20642a:	4c 89 ff             	mov    %r15,%rdi
  20642d:	ff 53 48             	callq  *0x48(%rbx)
  206430:	eb de                	jmp    206410 <free_pool+0x90>
  206432:	49 c7 84 24 90 00 00 	movq   $0x0,0x90(%r12)
  206439:	00 00 00 00 00 
  20643e:	4d 63 f6             	movslq %r14d,%r14
  206441:	4b 8b 7c f4 78       	mov    0x78(%r12,%r14,8),%rdi
  206446:	4b c7 44 f4 78 00 00 	movq   $0x0,0x78(%r12,%r14,8)
  20644d:	00 00 
  20644f:	48 85 ff             	test   %rdi,%rdi
  206452:	74 37                	je     20648b <free_pool+0x10b>
  206454:	90                   	nop
  206455:	90                   	nop
  206456:	90                   	nop
  206457:	90                   	nop
  206458:	90                   	nop
  206459:	90                   	nop
  20645a:	90                   	nop
  20645b:	90                   	nop
  20645c:	90                   	nop
  20645d:	90                   	nop
  20645e:	90                   	nop
  20645f:	90                   	nop
  206460:	48 8b 2f             	mov    (%rdi),%rbp
  206463:	48 8b 47 08          	mov    0x8(%rdi),%rax
  206467:	48 8b 4f 10          	mov    0x10(%rdi),%rcx
  20646b:	48 8d 1c 08          	lea    (%rax,%rcx,1),%rbx
  20646f:	48 83 c3 18          	add    $0x18,%rbx
  206473:	48 89 de             	mov    %rbx,%rsi
  206476:	e8 25 03 00 00       	callq  2067a0 <jpeg_free_large>
  20647b:	49 29 9c 24 98 00 00 	sub    %rbx,0x98(%r12)
  206482:	00 
  206483:	48 89 ef             	mov    %rbp,%rdi
  206486:	48 85 ed             	test   %rbp,%rbp
  206489:	75 d5                	jne    206460 <free_pool+0xe0>
  20648b:	4b 8b 7c f4 68       	mov    0x68(%r12,%r14,8),%rdi
  206490:	4b c7 44 f4 68 00 00 	movq   $0x0,0x68(%r12,%r14,8)
  206497:	00 00 
  206499:	48 85 ff             	test   %rdi,%rdi
  20649c:	74 2d                	je     2064cb <free_pool+0x14b>
  20649e:	90                   	nop
  20649f:	90                   	nop
  2064a0:	48 8b 2f             	mov    (%rdi),%rbp
  2064a3:	48 8b 47 08          	mov    0x8(%rdi),%rax
  2064a7:	48 8b 4f 10          	mov    0x10(%rdi),%rcx
  2064ab:	48 8d 1c 08          	lea    (%rax,%rcx,1),%rbx
  2064af:	48 83 c3 18          	add    $0x18,%rbx
  2064b3:	48 89 de             	mov    %rbx,%rsi
  2064b6:	e8 c5 02 00 00       	callq  206780 <jpeg_free_small>
  2064bb:	49 29 9c 24 98 00 00 	sub    %rbx,0x98(%r12)
  2064c2:	00 
  2064c3:	48 89 ef             	mov    %rbp,%rdi
  2064c6:	48 85 ed             	test   %rbp,%rbp
  2064c9:	75 d5                	jne    2064a0 <free_pool+0x120>
  2064cb:	5b                   	pop    %rbx
  2064cc:	41 5c                	pop    %r12
  2064ce:	41 5e                	pop    %r14
  2064d0:	41 5f                	pop    %r15
  2064d2:	5d                   	pop    %rbp
  2064d3:	c3                   	retq   
  2064d4:	cc                   	int3   
  2064d5:	cc                   	int3   
  2064d6:	cc                   	int3   
  2064d7:	cc                   	int3   
  2064d8:	cc                   	int3   
  2064d9:	cc                   	int3   
  2064da:	cc                   	int3   
  2064db:	cc                   	int3   
  2064dc:	cc                   	int3   
  2064dd:	cc                   	int3   
  2064de:	cc                   	int3   
  2064df:	cc                   	int3   

00000000002064e0 <self_destruct>:
  2064e0:	53                   	push   %rbx
  2064e1:	48 89 fb             	mov    %rdi,%rbx
  2064e4:	be 01 00 00 00       	mov    $0x1,%esi
  2064e9:	e8 92 fe ff ff       	callq  206380 <free_pool>
  2064ee:	48 89 df             	mov    %rbx,%rdi
  2064f1:	31 f6                	xor    %esi,%esi
  2064f3:	e8 88 fe ff ff       	callq  206380 <free_pool>
  2064f8:	48 8b 7b 08          	mov    0x8(%rbx),%rdi
  2064fc:	be a8 00 00 00       	mov    $0xa8,%esi
  206501:	e8 7a 02 00 00       	callq  206780 <jpeg_free_small>
  206506:	48 c7 43 08 00 00 00 	movq   $0x0,0x8(%rbx)
  20650d:	00 
  20650e:	5b                   	pop    %rbx
  20650f:	c3                   	retq   

0000000000206510 <do_barray_io>:
  206510:	55                   	push   %rbp
  206511:	41 57                	push   %r15
  206513:	41 56                	push   %r14
  206515:	41 55                	push   %r13
  206517:	41 54                	push   %r12
  206519:	53                   	push   %rbx
  20651a:	48 83 ec 18          	sub    $0x18,%rsp
  20651e:	89 54 24 0c          	mov    %edx,0xc(%rsp)
  206522:	48 89 7c 24 10       	mov    %rdi,0x10(%rsp)
  206527:	8b 46 14             	mov    0x14(%rsi),%eax
  20652a:	48 85 c0             	test   %rax,%rax
  20652d:	0f 84 e6 00 00 00    	je     206619 <do_barray_io+0x109>
  206533:	49 89 f4             	mov    %rsi,%r12
  206536:	8b 4e 18             	mov    0x18(%rsi),%ecx
  206539:	48 39 c8             	cmp    %rcx,%rax
  20653c:	48 0f 47 c1          	cmova  %rcx,%rax
  206540:	8b 6e 1c             	mov    0x1c(%rsi),%ebp
  206543:	8b 5e 08             	mov    0x8(%rsi),%ebx
  206546:	8b 4e 20             	mov    0x20(%rsi),%ecx
  206549:	48 29 e9             	sub    %rbp,%rcx
  20654c:	48 39 c8             	cmp    %rcx,%rax
  20654f:	48 0f 4e c8          	cmovle %rax,%rcx
  206553:	48 29 eb             	sub    %rbp,%rbx
  206556:	48 39 d9             	cmp    %rbx,%rcx
  206559:	48 0f 4e d9          	cmovle %rcx,%rbx
  20655d:	48 85 db             	test   %rbx,%rbx
  206560:	0f 8e b3 00 00 00    	jle    206619 <do_barray_io+0x109>
  206566:	45 8b 74 24 0c       	mov    0xc(%r12),%r14d
  20656b:	49 c1 e6 07          	shl    $0x7,%r14
  20656f:	4d 8d 6c 24 38       	lea    0x38(%r12),%r13
  206574:	49 0f af ee          	imul   %r14,%rbp
  206578:	45 31 ff             	xor    %r15d,%r15d
  20657b:	90                   	nop
  20657c:	90                   	nop
  20657d:	90                   	nop
  20657e:	90                   	nop
  20657f:	90                   	nop
  206580:	49 0f af de          	imul   %r14,%rbx
  206584:	83 7c 24 0c 00       	cmpl   $0x0,0xc(%rsp)
  206589:	74 25                	je     2065b0 <do_barray_io+0xa0>
  20658b:	49 8b 04 24          	mov    (%r12),%rax
  20658f:	4a 8b 14 f8          	mov    (%rax,%r15,8),%rdx
  206593:	48 8b 7c 24 10       	mov    0x10(%rsp),%rdi
  206598:	4c 89 ee             	mov    %r13,%rsi
  20659b:	48 89 e9             	mov    %rbp,%rcx
  20659e:	49 89 d8             	mov    %rbx,%r8
  2065a1:	41 ff 54 24 40       	callq  *0x40(%r12)
  2065a6:	eb 23                	jmp    2065cb <do_barray_io+0xbb>
  2065a8:	90                   	nop
  2065a9:	90                   	nop
  2065aa:	90                   	nop
  2065ab:	90                   	nop
  2065ac:	90                   	nop
  2065ad:	90                   	nop
  2065ae:	90                   	nop
  2065af:	90                   	nop
  2065b0:	49 8b 04 24          	mov    (%r12),%rax
  2065b4:	4a 8b 14 f8          	mov    (%rax,%r15,8),%rdx
  2065b8:	48 8b 7c 24 10       	mov    0x10(%rsp),%rdi
  2065bd:	4c 89 ee             	mov    %r13,%rsi
  2065c0:	48 89 e9             	mov    %rbp,%rcx
  2065c3:	49 89 d8             	mov    %rbx,%r8
  2065c6:	41 ff 54 24 38       	callq  *0x38(%r12)
  2065cb:	41 8b 44 24 14       	mov    0x14(%r12),%eax
  2065d0:	41 8b 4c 24 18       	mov    0x18(%r12),%ecx
  2065d5:	49 01 cf             	add    %rcx,%r15
  2065d8:	49 39 c7             	cmp    %rax,%r15
  2065db:	73 3c                	jae    206619 <do_barray_io+0x109>
  2065dd:	48 01 dd             	add    %rbx,%rbp
  2065e0:	41 8b 5c 24 08       	mov    0x8(%r12),%ebx
  2065e5:	4c 29 f8             	sub    %r15,%rax
  2065e8:	48 39 c8             	cmp    %rcx,%rax
  2065eb:	48 0f 4f c1          	cmovg  %rcx,%rax
  2065ef:	41 8b 4c 24 1c       	mov    0x1c(%r12),%ecx
  2065f4:	4c 01 f9             	add    %r15,%rcx
  2065f7:	41 8b 54 24 20       	mov    0x20(%r12),%edx
  2065fc:	48 29 ca             	sub    %rcx,%rdx
  2065ff:	48 39 d0             	cmp    %rdx,%rax
  206602:	48 0f 4e d0          	cmovle %rax,%rdx
  206606:	48 29 cb             	sub    %rcx,%rbx
  206609:	48 39 da             	cmp    %rbx,%rdx
  20660c:	48 0f 4e da          	cmovle %rdx,%rbx
  206610:	48 85 db             	test   %rbx,%rbx
  206613:	0f 8f 67 ff ff ff    	jg     206580 <do_barray_io+0x70>
  206619:	48 83 c4 18          	add    $0x18,%rsp
  20661d:	5b                   	pop    %rbx
  20661e:	41 5c                	pop    %r12
  206620:	41 5d                	pop    %r13
  206622:	41 5e                	pop    %r14
  206624:	41 5f                	pop    %r15
  206626:	5d                   	pop    %rbp
  206627:	c3                   	retq   
  206628:	cc                   	int3   
  206629:	cc                   	int3   
  20662a:	cc                   	int3   
  20662b:	cc                   	int3   
  20662c:	cc                   	int3   
  20662d:	cc                   	int3   
  20662e:	cc                   	int3   
  20662f:	cc                   	int3   

0000000000206630 <do_sarray_io>:
  206630:	55                   	push   %rbp
  206631:	41 57                	push   %r15
  206633:	41 56                	push   %r14
  206635:	41 55                	push   %r13
  206637:	41 54                	push   %r12
  206639:	53                   	push   %rbx
  20663a:	48 83 ec 18          	sub    $0x18,%rsp
  20663e:	89 54 24 0c          	mov    %edx,0xc(%rsp)
  206642:	48 89 7c 24 10       	mov    %rdi,0x10(%rsp)
  206647:	8b 46 14             	mov    0x14(%rsi),%eax
  20664a:	48 85 c0             	test   %rax,%rax
  20664d:	0f 84 e6 00 00 00    	je     206739 <do_sarray_io+0x109>
  206653:	49 89 f4             	mov    %rsi,%r12
  206656:	8b 4e 18             	mov    0x18(%rsi),%ecx
  206659:	48 39 c8             	cmp    %rcx,%rax
  20665c:	48 0f 47 c1          	cmova  %rcx,%rax
  206660:	8b 6e 1c             	mov    0x1c(%rsi),%ebp
  206663:	8b 5e 08             	mov    0x8(%rsi),%ebx
  206666:	8b 4e 20             	mov    0x20(%rsi),%ecx
  206669:	48 29 e9             	sub    %rbp,%rcx
  20666c:	48 39 c8             	cmp    %rcx,%rax
  20666f:	48 0f 4e c8          	cmovle %rax,%rcx
  206673:	48 29 eb             	sub    %rbp,%rbx
  206676:	48 39 d9             	cmp    %rbx,%rcx
  206679:	48 0f 4e d9          	cmovle %rcx,%rbx
  20667d:	48 85 db             	test   %rbx,%rbx
  206680:	0f 8e b3 00 00 00    	jle    206739 <do_sarray_io+0x109>
  206686:	45 8b 74 24 0c       	mov    0xc(%r12),%r14d
  20668b:	4d 8d 6c 24 38       	lea    0x38(%r12),%r13
  206690:	49 0f af ee          	imul   %r14,%rbp
  206694:	45 31 ff             	xor    %r15d,%r15d
  206697:	90                   	nop
  206698:	90                   	nop
  206699:	90                   	nop
  20669a:	90                   	nop
  20669b:	90                   	nop
  20669c:	90                   	nop
  20669d:	90                   	nop
  20669e:	90                   	nop
  20669f:	90                   	nop
  2066a0:	49 0f af de          	imul   %r14,%rbx
  2066a4:	83 7c 24 0c 00       	cmpl   $0x0,0xc(%rsp)
  2066a9:	74 25                	je     2066d0 <do_sarray_io+0xa0>
  2066ab:	49 8b 04 24          	mov    (%r12),%rax
  2066af:	4a 8b 14 f8          	mov    (%rax,%r15,8),%rdx
  2066b3:	48 8b 7c 24 10       	mov    0x10(%rsp),%rdi
  2066b8:	4c 89 ee             	mov    %r13,%rsi
  2066bb:	48 89 e9             	mov    %rbp,%rcx
  2066be:	49 89 d8             	mov    %rbx,%r8
  2066c1:	41 ff 54 24 40       	callq  *0x40(%r12)
  2066c6:	eb 23                	jmp    2066eb <do_sarray_io+0xbb>
  2066c8:	90                   	nop
  2066c9:	90                   	nop
  2066ca:	90                   	nop
  2066cb:	90                   	nop
  2066cc:	90                   	nop
  2066cd:	90                   	nop
  2066ce:	90                   	nop
  2066cf:	90                   	nop
  2066d0:	49 8b 04 24          	mov    (%r12),%rax
  2066d4:	4a 8b 14 f8          	mov    (%rax,%r15,8),%rdx
  2066d8:	48 8b 7c 24 10       	mov    0x10(%rsp),%rdi
  2066dd:	4c 89 ee             	mov    %r13,%rsi
  2066e0:	48 89 e9             	mov    %rbp,%rcx
  2066e3:	49 89 d8             	mov    %rbx,%r8
  2066e6:	41 ff 54 24 38       	callq  *0x38(%r12)
  2066eb:	41 8b 44 24 14       	mov    0x14(%r12),%eax
  2066f0:	41 8b 4c 24 18       	mov    0x18(%r12),%ecx
  2066f5:	49 01 cf             	add    %rcx,%r15
  2066f8:	49 39 c7             	cmp    %rax,%r15
  2066fb:	73 3c                	jae    206739 <do_sarray_io+0x109>
  2066fd:	48 01 dd             	add    %rbx,%rbp
  206700:	41 8b 5c 24 08       	mov    0x8(%r12),%ebx
  206705:	4c 29 f8             	sub    %r15,%rax
  206708:	48 39 c8             	cmp    %rcx,%rax
  20670b:	48 0f 4f c1          	cmovg  %rcx,%rax
  20670f:	41 8b 4c 24 1c       	mov    0x1c(%r12),%ecx
  206714:	4c 01 f9             	add    %r15,%rcx
  206717:	41 8b 54 24 20       	mov    0x20(%r12),%edx
  20671c:	48 29 ca             	sub    %rcx,%rdx
  20671f:	48 39 d0             	cmp    %rdx,%rax
  206722:	48 0f 4e d0          	cmovle %rax,%rdx
  206726:	48 29 cb             	sub    %rcx,%rbx
  206729:	48 39 da             	cmp    %rbx,%rdx
  20672c:	48 0f 4e da          	cmovle %rdx,%rbx
  206730:	48 85 db             	test   %rbx,%rbx
  206733:	0f 8f 67 ff ff ff    	jg     2066a0 <do_sarray_io+0x70>
  206739:	48 83 c4 18          	add    $0x18,%rsp
  20673d:	5b                   	pop    %rbx
  20673e:	41 5c                	pop    %r12
  206740:	41 5d                	pop    %r13
  206742:	41 5e                	pop    %r14
  206744:	41 5f                	pop    %r15
  206746:	5d                   	pop    %rbp
  206747:	c3                   	retq   
  206748:	cc                   	int3   
  206749:	cc                   	int3   
  20674a:	cc                   	int3   
  20674b:	cc                   	int3   
  20674c:	cc                   	int3   
  20674d:	cc                   	int3   
  20674e:	cc                   	int3   
  20674f:	cc                   	int3   

0000000000206750 <out_of_memory>:
  206750:	48 8b 07             	mov    (%rdi),%rax
  206753:	c7 40 28 38 00 00 00 	movl   $0x38,0x28(%rax)
  20675a:	89 70 2c             	mov    %esi,0x2c(%rax)
  20675d:	48 8b 07             	mov    (%rdi),%rax
  206760:	ff 20                	jmpq   *(%rax)
  206762:	cc                   	int3   
  206763:	cc                   	int3   
  206764:	cc                   	int3   
  206765:	cc                   	int3   
  206766:	cc                   	int3   
  206767:	cc                   	int3   
  206768:	cc                   	int3   
  206769:	cc                   	int3   
  20676a:	cc                   	int3   
  20676b:	cc                   	int3   
  20676c:	cc                   	int3   
  20676d:	cc                   	int3   
  20676e:	cc                   	int3   
  20676f:	cc                   	int3   

0000000000206770 <jpeg_get_small>:
  206770:	e9 2b a4 01 00       	jmpq   220ba0 <malloc@plt>
  206775:	cc                   	int3   
  206776:	cc                   	int3   
  206777:	cc                   	int3   
  206778:	cc                   	int3   
  206779:	cc                   	int3   
  20677a:	cc                   	int3   
  20677b:	cc                   	int3   
  20677c:	cc                   	int3   
  20677d:	cc                   	int3   
  20677e:	cc                   	int3   
  20677f:	cc                   	int3   

0000000000206780 <jpeg_free_small>:
  206780:	e9 2b a4 01 00       	jmpq   220bb0 <free@plt>
  206785:	cc                   	int3   
  206786:	cc                   	int3   
  206787:	cc                   	int3   
  206788:	cc                   	int3   
  206789:	cc                   	int3   
  20678a:	cc                   	int3   
  20678b:	cc                   	int3   
  20678c:	cc                   	int3   
  20678d:	cc                   	int3   
  20678e:	cc                   	int3   
  20678f:	cc                   	int3   

0000000000206790 <jpeg_get_large>:
  206790:	e9 0b a4 01 00       	jmpq   220ba0 <malloc@plt>
  206795:	cc                   	int3   
  206796:	cc                   	int3   
  206797:	cc                   	int3   
  206798:	cc                   	int3   
  206799:	cc                   	int3   
  20679a:	cc                   	int3   
  20679b:	cc                   	int3   
  20679c:	cc                   	int3   
  20679d:	cc                   	int3   
  20679e:	cc                   	int3   
  20679f:	cc                   	int3   

00000000002067a0 <jpeg_free_large>:
  2067a0:	e9 0b a4 01 00       	jmpq   220bb0 <free@plt>
  2067a5:	cc                   	int3   
  2067a6:	cc                   	int3   
  2067a7:	cc                   	int3   
  2067a8:	cc                   	int3   
  2067a9:	cc                   	int3   
  2067aa:	cc                   	int3   
  2067ab:	cc                   	int3   
  2067ac:	cc                   	int3   
  2067ad:	cc                   	int3   
  2067ae:	cc                   	int3   
  2067af:	cc                   	int3   

00000000002067b0 <jpeg_mem_available>:
  2067b0:	48 89 f0             	mov    %rsi,%rax
  2067b3:	c3                   	retq   
  2067b4:	cc                   	int3   
  2067b5:	cc                   	int3   
  2067b6:	cc                   	int3   
  2067b7:	cc                   	int3   
  2067b8:	cc                   	int3   
  2067b9:	cc                   	int3   
  2067ba:	cc                   	int3   
  2067bb:	cc                   	int3   
  2067bc:	cc                   	int3   
  2067bd:	cc                   	int3   
  2067be:	cc                   	int3   
  2067bf:	cc                   	int3   

00000000002067c0 <jpeg_open_backing_store>:
  2067c0:	48 8b 07             	mov    (%rdi),%rax
  2067c3:	c7 40 28 33 00 00 00 	movl   $0x33,0x28(%rax)
  2067ca:	ff 20                	jmpq   *(%rax)
  2067cc:	cc                   	int3   
  2067cd:	cc                   	int3   
  2067ce:	cc                   	int3   
  2067cf:	cc                   	int3   

00000000002067d0 <jpeg_mem_init>:
  2067d0:	31 c0                	xor    %eax,%eax
  2067d2:	c3                   	retq   
  2067d3:	cc                   	int3   
  2067d4:	cc                   	int3   
  2067d5:	cc                   	int3   
  2067d6:	cc                   	int3   
  2067d7:	cc                   	int3   
  2067d8:	cc                   	int3   
  2067d9:	cc                   	int3   
  2067da:	cc                   	int3   
  2067db:	cc                   	int3   
  2067dc:	cc                   	int3   
  2067dd:	cc                   	int3   
  2067de:	cc                   	int3   
  2067df:	cc                   	int3   

00000000002067e0 <jpeg_resync_to_restart>:
  2067e0:	55                   	push   %rbp
  2067e1:	41 57                	push   %r15
  2067e3:	41 56                	push   %r14
  2067e5:	41 55                	push   %r13
  2067e7:	41 54                	push   %r12
  2067e9:	53                   	push   %rbx
  2067ea:	50                   	push   %rax
  2067eb:	41 89 f6             	mov    %esi,%r14d
  2067ee:	48 89 fb             	mov    %rdi,%rbx
  2067f1:	8b af 3c 02 00 00    	mov    0x23c(%rdi),%ebp
  2067f7:	48 8b 07             	mov    (%rdi),%rax
  2067fa:	c7 40 28 7c 00 00 00 	movl   $0x7c,0x28(%rax)
  206801:	89 68 2c             	mov    %ebp,0x2c(%rax)
  206804:	48 8b 07             	mov    (%rdi),%rax
  206807:	89 70 30             	mov    %esi,0x30(%rax)
  20680a:	48 8b 07             	mov    (%rdi),%rax
  20680d:	be ff ff ff ff       	mov    $0xffffffff,%esi
  206812:	ff 50 08             	callq  *0x8(%rax)
  206815:	41 8d 7e 01          	lea    0x1(%r14),%edi
  206819:	83 e7 07             	and    $0x7,%edi
  20681c:	81 cf d0 00 00 00    	or     $0xd0,%edi
  206822:	45 8d 66 02          	lea    0x2(%r14),%r12d
  206826:	41 83 e4 07          	and    $0x7,%r12d
  20682a:	41 81 cc d0 00 00 00 	or     $0xd0,%r12d
  206831:	45 8d 6e ff          	lea    -0x1(%r14),%r13d
  206835:	41 83 e5 07          	and    $0x7,%r13d
  206839:	41 81 cd d0 00 00 00 	or     $0xd0,%r13d
  206840:	41 83 c6 06          	add    $0x6,%r14d
  206844:	41 83 e6 07          	and    $0x7,%r14d
  206848:	41 81 ce d0 00 00 00 	or     $0xd0,%r14d
  20684f:	89 7c 24 04          	mov    %edi,0x4(%rsp)
  206853:	31 c0                	xor    %eax,%eax
  206855:	81 fd c0 00 00 00    	cmp    $0xc0,%ebp
  20685b:	0f 9c c0             	setl   %al
  20685e:	89 e9                	mov    %ebp,%ecx
  206860:	83 e1 f8             	and    $0xfffffff8,%ecx
  206863:	44 39 ed             	cmp    %r13d,%ebp
  206866:	40 0f 94 c6          	sete   %sil
  20686a:	44 39 f5             	cmp    %r14d,%ebp
  20686d:	0f 94 c2             	sete   %dl
  206870:	83 f0 03             	xor    $0x3,%eax
  206873:	40 08 f2             	or     %sil,%dl
  206876:	44 0f b6 fa          	movzbl %dl,%r15d
  20687a:	41 83 c7 01          	add    $0x1,%r15d
  20687e:	44 39 e5             	cmp    %r12d,%ebp
  206881:	44 0f 44 f8          	cmove  %eax,%r15d
  206885:	39 fd                	cmp    %edi,%ebp
  206887:	44 0f 44 f8          	cmove  %eax,%r15d
  20688b:	81 f9 d0 00 00 00    	cmp    $0xd0,%ecx
  206891:	44 0f 45 f8          	cmovne %eax,%r15d
  206895:	81 fd c0 00 00 00    	cmp    $0xc0,%ebp
  20689b:	44 0f 4c f8          	cmovl  %eax,%r15d
  20689f:	90                   	nop
  2068a0:	48 8b 03             	mov    (%rbx),%rax
  2068a3:	c7 40 28 63 00 00 00 	movl   $0x63,0x28(%rax)
  2068aa:	89 68 2c             	mov    %ebp,0x2c(%rax)
  2068ad:	48 8b 03             	mov    (%rbx),%rax
  2068b0:	44 89 78 30          	mov    %r15d,0x30(%rax)
  2068b4:	48 8b 03             	mov    (%rbx),%rax
  2068b7:	48 89 df             	mov    %rbx,%rdi
  2068ba:	be 04 00 00 00       	mov    $0x4,%esi
  2068bf:	ff 50 08             	callq  *0x8(%rax)
  2068c2:	41 83 ff 03          	cmp    $0x3,%r15d
  2068c6:	74 3d                	je     206905 <jpeg_resync_to_restart+0x125>
  2068c8:	41 83 ff 02          	cmp    $0x2,%r15d
  2068cc:	74 12                	je     2068e0 <jpeg_resync_to_restart+0x100>
  2068ce:	41 83 ff 01          	cmp    $0x1,%r15d
  2068d2:	75 cc                	jne    2068a0 <jpeg_resync_to_restart+0xc0>
  2068d4:	eb 25                	jmp    2068fb <jpeg_resync_to_restart+0x11b>
  2068d6:	90                   	nop
  2068d7:	90                   	nop
  2068d8:	90                   	nop
  2068d9:	90                   	nop
  2068da:	90                   	nop
  2068db:	90                   	nop
  2068dc:	90                   	nop
  2068dd:	90                   	nop
  2068de:	90                   	nop
  2068df:	90                   	nop
  2068e0:	48 89 df             	mov    %rbx,%rdi
  2068e3:	e8 38 00 00 00       	callq  206920 <next_marker>
  2068e8:	85 c0                	test   %eax,%eax
  2068ea:	74 2d                	je     206919 <jpeg_resync_to_restart+0x139>
  2068ec:	8b ab 3c 02 00 00    	mov    0x23c(%rbx),%ebp
  2068f2:	8b 7c 24 04          	mov    0x4(%rsp),%edi
  2068f6:	e9 58 ff ff ff       	jmpq   206853 <jpeg_resync_to_restart+0x73>
  2068fb:	c7 83 3c 02 00 00 00 	movl   $0x0,0x23c(%rbx)
  206902:	00 00 00 
  206905:	b8 01 00 00 00       	mov    $0x1,%eax
  20690a:	48 83 c4 08          	add    $0x8,%rsp
  20690e:	5b                   	pop    %rbx
  20690f:	41 5c                	pop    %r12
  206911:	41 5d                	pop    %r13
  206913:	41 5e                	pop    %r14
  206915:	41 5f                	pop    %r15
  206917:	5d                   	pop    %rbp
  206918:	c3                   	retq   
  206919:	31 c0                	xor    %eax,%eax
  20691b:	eb ed                	jmp    20690a <jpeg_resync_to_restart+0x12a>
  20691d:	cc                   	int3   
  20691e:	cc                   	int3   
  20691f:	cc                   	int3   

0000000000206920 <next_marker>:
  206920:	55                   	push   %rbp
  206921:	41 57                	push   %r15
  206923:	41 56                	push   %r14
  206925:	41 54                	push   %r12
  206927:	53                   	push   %rbx
  206928:	49 89 fe             	mov    %rdi,%r14
  20692b:	4c 8b 7f 28          	mov    0x28(%rdi),%r15
  20692f:	4d 8b 27             	mov    (%r15),%r12
  206932:	49 8b 5f 08          	mov    0x8(%r15),%rbx
  206936:	48 85 db             	test   %rbx,%rbx
  206939:	75 0c                	jne    206947 <next_marker+0x27>
  20693b:	e9 80 00 00 00       	jmpq   2069c0 <next_marker+0xa0>
  206940:	4d 8b 27             	mov    (%r15),%r12
  206943:	49 8b 5f 08          	mov    0x8(%r15),%rbx
  206947:	48 83 c3 ff          	add    $0xffffffffffffffff,%rbx
  20694b:	41 80 3c 24 ff       	cmpb   $0xff,(%r12)
  206950:	4d 8d 64 24 01       	lea    0x1(%r12),%r12
  206955:	74 35                	je     20698c <next_marker+0x6c>
  206957:	49 8b 86 68 02 00 00 	mov    0x268(%r14),%rax
  20695e:	83 40 24 01          	addl   $0x1,0x24(%rax)
  206962:	4d 89 27             	mov    %r12,(%r15)
  206965:	49 89 5f 08          	mov    %rbx,0x8(%r15)
  206969:	48 85 db             	test   %rbx,%rbx
  20696c:	75 d9                	jne    206947 <next_marker+0x27>
  20696e:	eb 50                	jmp    2069c0 <next_marker+0xa0>
  206970:	4d 8b 27             	mov    (%r15),%r12
  206973:	49 8b 5f 08          	mov    0x8(%r15),%rbx
  206977:	48 83 c3 ff          	add    $0xffffffffffffffff,%rbx
  20697b:	41 0f b6 2c 24       	movzbl (%r12),%ebp
  206980:	49 83 c4 01          	add    $0x1,%r12
  206984:	81 fd ff 00 00 00    	cmp    $0xff,%ebp
  20698a:	75 12                	jne    20699e <next_marker+0x7e>
  20698c:	48 85 db             	test   %rbx,%rbx
  20698f:	75 e6                	jne    206977 <next_marker+0x57>
  206991:	4c 89 f7             	mov    %r14,%rdi
  206994:	41 ff 57 18          	callq  *0x18(%r15)
  206998:	85 c0                	test   %eax,%eax
  20699a:	75 d4                	jne    206970 <next_marker+0x50>
  20699c:	eb 31                	jmp    2069cf <next_marker+0xaf>
  20699e:	49 8b 8e 68 02 00 00 	mov    0x268(%r14),%rcx
  2069a5:	8b 41 24             	mov    0x24(%rcx),%eax
  2069a8:	40 84 ed             	test   %bpl,%bpl
  2069ab:	75 2d                	jne    2069da <next_marker+0xba>
  2069ad:	83 c0 02             	add    $0x2,%eax
  2069b0:	89 41 24             	mov    %eax,0x24(%rcx)
  2069b3:	4d 89 27             	mov    %r12,(%r15)
  2069b6:	49 89 5f 08          	mov    %rbx,0x8(%r15)
  2069ba:	48 85 db             	test   %rbx,%rbx
  2069bd:	75 88                	jne    206947 <next_marker+0x27>
  2069bf:	90                   	nop
  2069c0:	4c 89 f7             	mov    %r14,%rdi
  2069c3:	41 ff 57 18          	callq  *0x18(%r15)
  2069c7:	85 c0                	test   %eax,%eax
  2069c9:	0f 85 71 ff ff ff    	jne    206940 <next_marker+0x20>
  2069cf:	31 c0                	xor    %eax,%eax
  2069d1:	5b                   	pop    %rbx
  2069d2:	41 5c                	pop    %r12
  2069d4:	41 5e                	pop    %r14
  2069d6:	41 5f                	pop    %r15
  2069d8:	5d                   	pop    %rbp
  2069d9:	c3                   	retq   
  2069da:	85 c0                	test   %eax,%eax
  2069dc:	74 2f                	je     206a0d <next_marker+0xed>
  2069de:	49 8b 0e             	mov    (%r14),%rcx
  2069e1:	c7 41 28 77 00 00 00 	movl   $0x77,0x28(%rcx)
  2069e8:	89 41 2c             	mov    %eax,0x2c(%rcx)
  2069eb:	49 8b 06             	mov    (%r14),%rax
  2069ee:	89 68 30             	mov    %ebp,0x30(%rax)
  2069f1:	49 8b 06             	mov    (%r14),%rax
  2069f4:	4c 89 f7             	mov    %r14,%rdi
  2069f7:	be ff ff ff ff       	mov    $0xffffffff,%esi
  2069fc:	ff 50 08             	callq  *0x8(%rax)
  2069ff:	49 8b 86 68 02 00 00 	mov    0x268(%r14),%rax
  206a06:	c7 40 24 00 00 00 00 	movl   $0x0,0x24(%rax)
  206a0d:	41 89 ae 3c 02 00 00 	mov    %ebp,0x23c(%r14)
  206a14:	4d 89 27             	mov    %r12,(%r15)
  206a17:	49 89 5f 08          	mov    %rbx,0x8(%r15)
  206a1b:	b8 01 00 00 00       	mov    $0x1,%eax
  206a20:	eb af                	jmp    2069d1 <next_marker+0xb1>
  206a22:	cc                   	int3   
  206a23:	cc                   	int3   
  206a24:	cc                   	int3   
  206a25:	cc                   	int3   
  206a26:	cc                   	int3   
  206a27:	cc                   	int3   
  206a28:	cc                   	int3   
  206a29:	cc                   	int3   
  206a2a:	cc                   	int3   
  206a2b:	cc                   	int3   
  206a2c:	cc                   	int3   
  206a2d:	cc                   	int3   
  206a2e:	cc                   	int3   
  206a2f:	cc                   	int3   

0000000000206a30 <jinit_marker_reader>:
  206a30:	53                   	push   %rbx
  206a31:	48 89 fb             	mov    %rdi,%rbx
  206a34:	48 8b 47 08          	mov    0x8(%rdi),%rax
  206a38:	ba 08 01 00 00       	mov    $0x108,%edx
  206a3d:	31 f6                	xor    %esi,%esi
  206a3f:	ff 10                	callq  *(%rax)
  206a41:	48 89 83 68 02 00 00 	mov    %rax,0x268(%rbx)
  206a48:	48 c7 00 10 6b 20 00 	movq   $0x206b10,(%rax)
  206a4f:	b9 b0 6e 20 00       	mov    $0x206eb0,%ecx
  206a54:	66 48 0f 6e c1       	movq   %rcx,%xmm0
  206a59:	b9 60 6b 20 00       	mov    $0x206b60,%ecx
  206a5e:	66 48 0f 6e c9       	movq   %rcx,%xmm1
  206a63:	66 0f 6c c8          	punpcklqdq %xmm0,%xmm1
  206a67:	f3 0f 7f 48 08       	movdqu %xmm1,0x8(%rax)
  206a6c:	48 c7 40 28 40 6f 20 	movq   $0x206f40,0x28(%rax)
  206a73:	00 
  206a74:	b9 40 6f 20 00       	mov    $0x206f40,%ecx
  206a79:	66 48 0f 6e c1       	movq   %rcx,%xmm0
  206a7e:	66 0f 70 c8 44       	pshufd $0x44,%xmm0,%xmm1
  206a83:	f3 0f 7f 48 38       	movdqu %xmm1,0x38(%rax)
  206a88:	0f 57 d2             	xorps  %xmm2,%xmm2
  206a8b:	0f 11 90 b0 00 00 00 	movups %xmm2,0xb0(%rax)
  206a92:	c7 80 c0 00 00 00 00 	movl   $0x0,0xc0(%rax)
  206a99:	00 00 00 
  206a9c:	f3 0f 7f 48 48       	movdqu %xmm1,0x48(%rax)
  206aa1:	48 c7 80 c4 00 00 00 	movq   $0x0,0xc4(%rax)
  206aa8:	00 00 00 00 
  206aac:	48 c7 40 58 40 6f 20 	movq   $0x206f40,0x58(%rax)
  206ab3:	00 
  206ab4:	f3 0f 7f 48 60       	movdqu %xmm1,0x60(%rax)
  206ab9:	f3 0f 7f 48 70       	movdqu %xmm1,0x70(%rax)
  206abe:	0f 11 90 cc 00 00 00 	movups %xmm2,0xcc(%rax)
  206ac5:	f3 0f 7f 88 80 00 00 	movdqu %xmm1,0x80(%rax)
  206acc:	00 
  206acd:	f3 0f 7f 88 90 00 00 	movdqu %xmm1,0x90(%rax)
  206ad4:	00 
  206ad5:	0f 11 90 dc 00 00 00 	movups %xmm2,0xdc(%rax)
  206adc:	48 c7 80 ec 00 00 00 	movq   $0x0,0xec(%rax)
  206ae3:	00 00 00 00 
  206ae7:	48 c7 40 30 20 70 20 	movq   $0x207020,0x30(%rax)
  206aee:	00 
  206aef:	b9 20 70 20 00       	mov    $0x207020,%ecx
  206af4:	66 48 0f 6e c9       	movq   %rcx,%xmm1
  206af9:	66 0f 6c c8          	punpcklqdq %xmm0,%xmm1
  206afd:	f3 0f 7f 88 a0 00 00 	movdqu %xmm1,0xa0(%rax)
  206b04:	00 
  206b05:	48 89 df             	mov    %rbx,%rdi
  206b08:	5b                   	pop    %rbx
  206b09:	e9 02 00 00 00       	jmpq   206b10 <reset_marker_reader>
  206b0e:	cc                   	int3   
  206b0f:	cc                   	int3   

0000000000206b10 <reset_marker_reader>:
  206b10:	48 8b 87 68 02 00 00 	mov    0x268(%rdi),%rax
  206b17:	48 c7 87 30 01 00 00 	movq   $0x0,0x130(%rdi)
  206b1e:	00 00 00 00 
  206b22:	c7 87 ac 00 00 00 00 	movl   $0x0,0xac(%rdi)
  206b29:	00 00 00 
  206b2c:	c7 87 3c 02 00 00 00 	movl   $0x0,0x23c(%rdi)
  206b33:	00 00 00 
  206b36:	48 c7 40 18 00 00 00 	movq   $0x0,0x18(%rax)
  206b3d:	00 
  206b3e:	c7 40 24 00 00 00 00 	movl   $0x0,0x24(%rax)
  206b45:	48 c7 80 f8 00 00 00 	movq   $0x0,0xf8(%rax)
  206b4c:	00 00 00 00 
  206b50:	c3                   	retq   
  206b51:	cc                   	int3   
  206b52:	cc                   	int3   
  206b53:	cc                   	int3   
  206b54:	cc                   	int3   
  206b55:	cc                   	int3   
  206b56:	cc                   	int3   
  206b57:	cc                   	int3   
  206b58:	cc                   	int3   
  206b59:	cc                   	int3   
  206b5a:	cc                   	int3   
  206b5b:	cc                   	int3   
  206b5c:	cc                   	int3   
  206b5d:	cc                   	int3   
  206b5e:	cc                   	int3   
  206b5f:	cc                   	int3   

0000000000206b60 <read_markers>:
  206b60:	55                   	push   %rbp
  206b61:	53                   	push   %rbx
  206b62:	50                   	push   %rax
  206b63:	48 89 fb             	mov    %rdi,%rbx
  206b66:	8b 87 3c 02 00 00    	mov    0x23c(%rdi),%eax
  206b6c:	85 c0                	test   %eax,%eax
  206b6e:	0f 85 e0 01 00 00    	jne    206d54 <read_markers+0x1f4>
  206b74:	90                   	nop
  206b75:	90                   	nop
  206b76:	90                   	nop
  206b77:	90                   	nop
  206b78:	90                   	nop
  206b79:	90                   	nop
  206b7a:	90                   	nop
  206b7b:	90                   	nop
  206b7c:	90                   	nop
  206b7d:	90                   	nop
  206b7e:	90                   	nop
  206b7f:	90                   	nop
  206b80:	48 8b 83 68 02 00 00 	mov    0x268(%rbx),%rax
  206b87:	83 78 18 00          	cmpl   $0x0,0x18(%rax)
  206b8b:	74 13                	je     206ba0 <read_markers+0x40>
  206b8d:	48 89 df             	mov    %rbx,%rdi
  206b90:	e8 8b fd ff ff       	callq  206920 <next_marker>
  206b95:	85 c0                	test   %eax,%eax
  206b97:	75 17                	jne    206bb0 <read_markers+0x50>
  206b99:	e9 03 03 00 00       	jmpq   206ea1 <read_markers+0x341>
  206b9e:	90                   	nop
  206b9f:	90                   	nop
  206ba0:	48 89 df             	mov    %rbx,%rdi
  206ba3:	e8 e8 08 00 00       	callq  207490 <first_marker>
  206ba8:	85 c0                	test   %eax,%eax
  206baa:	0f 84 f1 02 00 00    	je     206ea1 <read_markers+0x341>
  206bb0:	8b 83 3c 02 00 00    	mov    0x23c(%rbx),%eax
  206bb6:	3d d7 00 00 00       	cmp    $0xd7,%eax
  206bbb:	0f 8e 9e 01 00 00    	jle    206d5f <read_markers+0x1ff>
  206bc1:	3d df 00 00 00       	cmp    $0xdf,%eax
  206bc6:	7e 38                	jle    206c00 <read_markers+0xa0>
  206bc8:	8d 88 20 ff ff ff    	lea    -0xe0(%rax),%ecx
  206bce:	83 f9 10             	cmp    $0x10,%ecx
  206bd1:	0f 83 84 00 00 00    	jae    206c5b <read_markers+0xfb>
  206bd7:	48 8b 8b 68 02 00 00 	mov    0x268(%rbx),%rcx
  206bde:	48 98                	cltq   
  206be0:	48 89 df             	mov    %rbx,%rdi
  206be3:	ff 94 c1 30 f9 ff ff 	callq  *-0x6d0(%rcx,%rax,8)
  206bea:	85 c0                	test   %eax,%eax
  206bec:	0f 85 4e 01 00 00    	jne    206d40 <read_markers+0x1e0>
  206bf2:	e9 aa 02 00 00       	jmpq   206ea1 <read_markers+0x341>
  206bf7:	90                   	nop
  206bf8:	90                   	nop
  206bf9:	90                   	nop
  206bfa:	90                   	nop
  206bfb:	90                   	nop
  206bfc:	90                   	nop
  206bfd:	90                   	nop
  206bfe:	90                   	nop
  206bff:	90                   	nop
  206c00:	3d da 00 00 00       	cmp    $0xda,%eax
  206c05:	7e 32                	jle    206c39 <read_markers+0xd9>
  206c07:	3d db 00 00 00       	cmp    $0xdb,%eax
  206c0c:	74 79                	je     206c87 <read_markers+0x127>
  206c0e:	3d dc 00 00 00       	cmp    $0xdc,%eax
  206c13:	0f 84 83 00 00 00    	je     206c9c <read_markers+0x13c>
  206c19:	3d dd 00 00 00       	cmp    $0xdd,%eax
  206c1e:	0f 85 2b 02 00 00    	jne    206e4f <read_markers+0x2ef>
  206c24:	48 89 df             	mov    %rbx,%rdi
  206c27:	e8 84 1e 00 00       	callq  208ab0 <get_dri>
  206c2c:	85 c0                	test   %eax,%eax
  206c2e:	0f 85 0c 01 00 00    	jne    206d40 <read_markers+0x1e0>
  206c34:	e9 68 02 00 00       	jmpq   206ea1 <read_markers+0x341>
  206c39:	3d d8 00 00 00       	cmp    $0xd8,%eax
  206c3e:	74 71                	je     206cb1 <read_markers+0x151>
  206c40:	3d d9 00 00 00       	cmp    $0xd9,%eax
  206c45:	0f 84 13 02 00 00    	je     206e5e <read_markers+0x2fe>
  206c4b:	3d da 00 00 00       	cmp    $0xda,%eax
  206c50:	0f 84 2e 02 00 00    	je     206e84 <read_markers+0x324>
  206c56:	e9 f4 01 00 00       	jmpq   206e4f <read_markers+0x2ef>
  206c5b:	3d f8 00 00 00       	cmp    $0xf8,%eax
  206c60:	74 5c                	je     206cbe <read_markers+0x15e>
  206c62:	3d fe 00 00 00       	cmp    $0xfe,%eax
  206c67:	0f 85 e2 01 00 00    	jne    206e4f <read_markers+0x2ef>
  206c6d:	48 8b 83 68 02 00 00 	mov    0x268(%rbx),%rax
  206c74:	48 89 df             	mov    %rbx,%rdi
  206c77:	ff 50 28             	callq  *0x28(%rax)
  206c7a:	85 c0                	test   %eax,%eax
  206c7c:	0f 85 be 00 00 00    	jne    206d40 <read_markers+0x1e0>
  206c82:	e9 1a 02 00 00       	jmpq   206ea1 <read_markers+0x341>
  206c87:	48 89 df             	mov    %rbx,%rdi
  206c8a:	e8 91 18 00 00       	callq  208520 <get_dqt>
  206c8f:	85 c0                	test   %eax,%eax
  206c91:	0f 85 a9 00 00 00    	jne    206d40 <read_markers+0x1e0>
  206c97:	e9 05 02 00 00       	jmpq   206ea1 <read_markers+0x341>
  206c9c:	48 89 df             	mov    %rbx,%rdi
  206c9f:	e8 9c 02 00 00       	callq  206f40 <skip_variable>
  206ca4:	85 c0                	test   %eax,%eax
  206ca6:	0f 85 94 00 00 00    	jne    206d40 <read_markers+0x1e0>
  206cac:	e9 f0 01 00 00       	jmpq   206ea1 <read_markers+0x341>
  206cb1:	48 89 df             	mov    %rbx,%rdi
  206cb4:	e8 87 08 00 00       	callq  207540 <get_soi>
  206cb9:	e9 82 00 00 00       	jmpq   206d40 <read_markers+0x1e0>
  206cbe:	48 89 df             	mov    %rbx,%rdi
  206cc1:	e8 0a 1f 00 00       	callq  208bd0 <get_lse>
  206cc6:	85 c0                	test   %eax,%eax
  206cc8:	75 76                	jne    206d40 <read_markers+0x1e0>
  206cca:	e9 d2 01 00 00       	jmpq   206ea1 <read_markers+0x341>
  206ccf:	90                   	nop
  206cd0:	3d cf 00 00 00       	cmp    $0xcf,%eax
  206cd5:	7e 29                	jle    206d00 <read_markers+0x1a0>
  206cd7:	48 8b 0b             	mov    (%rbx),%rcx
  206cda:	c7 41 28 5e 00 00 00 	movl   $0x5e,0x28(%rcx)
  206ce1:	89 41 2c             	mov    %eax,0x2c(%rcx)
  206ce4:	48 8b 03             	mov    (%rbx),%rax
  206ce7:	48 89 df             	mov    %rbx,%rdi
  206cea:	be 01 00 00 00       	mov    $0x1,%esi
  206cef:	ff 50 08             	callq  *0x8(%rax)
  206cf2:	eb 4c                	jmp    206d40 <read_markers+0x1e0>
  206cf4:	90                   	nop
  206cf5:	90                   	nop
  206cf6:	90                   	nop
  206cf7:	90                   	nop
  206cf8:	90                   	nop
  206cf9:	90                   	nop
  206cfa:	90                   	nop
  206cfb:	90                   	nop
  206cfc:	90                   	nop
  206cfd:	90                   	nop
  206cfe:	90                   	nop
  206cff:	90                   	nop
  206d00:	8d 88 33 ff ff ff    	lea    -0xcd(%rax),%ecx
  206d06:	83 f9 03             	cmp    $0x3,%ecx
  206d09:	0f 82 9c 00 00 00    	jb     206dab <read_markers+0x24b>
  206d0f:	3d cb 00 00 00       	cmp    $0xcb,%eax
  206d14:	0f 84 91 00 00 00    	je     206dab <read_markers+0x24b>
  206d1a:	3d cc 00 00 00       	cmp    $0xcc,%eax
  206d1f:	0f 85 2a 01 00 00    	jne    206e4f <read_markers+0x2ef>
  206d25:	48 89 df             	mov    %rbx,%rdi
  206d28:	e8 a3 12 00 00       	callq  207fd0 <get_dac>
  206d2d:	85 c0                	test   %eax,%eax
  206d2f:	0f 84 6c 01 00 00    	je     206ea1 <read_markers+0x341>
  206d35:	90                   	nop
  206d36:	90                   	nop
  206d37:	90                   	nop
  206d38:	90                   	nop
  206d39:	90                   	nop
  206d3a:	90                   	nop
  206d3b:	90                   	nop
  206d3c:	90                   	nop
  206d3d:	90                   	nop
  206d3e:	90                   	nop
  206d3f:	90                   	nop
  206d40:	c7 83 3c 02 00 00 00 	movl   $0x0,0x23c(%rbx)
  206d47:	00 00 00 
  206d4a:	31 c0                	xor    %eax,%eax
  206d4c:	85 c0                	test   %eax,%eax
  206d4e:	0f 84 2c fe ff ff    	je     206b80 <read_markers+0x20>
  206d54:	3d d7 00 00 00       	cmp    $0xd7,%eax
  206d59:	0f 8f 62 fe ff ff    	jg     206bc1 <read_markers+0x61>
  206d5f:	3d ca 00 00 00       	cmp    $0xca,%eax
  206d64:	0f 8f 66 ff ff ff    	jg     206cd0 <read_markers+0x170>
  206d6a:	3d c4 00 00 00       	cmp    $0xc4,%eax
  206d6f:	7f 2f                	jg     206da0 <read_markers+0x240>
  206d71:	3d c1 00 00 00       	cmp    $0xc1,%eax
  206d76:	7f 4d                	jg     206dc5 <read_markers+0x265>
  206d78:	83 f8 01             	cmp    $0x1,%eax
  206d7b:	0f 84 56 ff ff ff    	je     206cd7 <read_markers+0x177>
  206d81:	3d c0 00 00 00       	cmp    $0xc0,%eax
  206d86:	0f 84 84 00 00 00    	je     206e10 <read_markers+0x2b0>
  206d8c:	3d c1 00 00 00       	cmp    $0xc1,%eax
  206d91:	0f 85 b8 00 00 00    	jne    206e4f <read_markers+0x2ef>
  206d97:	31 ed                	xor    %ebp,%ebp
  206d99:	48 89 df             	mov    %rbx,%rdi
  206d9c:	31 f6                	xor    %esi,%esi
  206d9e:	eb 7a                	jmp    206e1a <read_markers+0x2ba>
  206da0:	8d 88 3b ff ff ff    	lea    -0xc5(%rax),%ecx
  206da6:	83 f9 04             	cmp    $0x4,%ecx
  206da9:	73 44                	jae    206def <read_markers+0x28f>
  206dab:	48 8b 0b             	mov    (%rbx),%rcx
  206dae:	c7 41 28 3f 00 00 00 	movl   $0x3f,0x28(%rcx)
  206db5:	89 41 2c             	mov    %eax,0x2c(%rcx)
  206db8:	48 8b 03             	mov    (%rbx),%rax
  206dbb:	48 89 df             	mov    %rbx,%rdi
  206dbe:	ff 10                	callq  *(%rax)
  206dc0:	e9 7b ff ff ff       	jmpq   206d40 <read_markers+0x1e0>
  206dc5:	3d c2 00 00 00       	cmp    $0xc2,%eax
  206dca:	74 52                	je     206e1e <read_markers+0x2be>
  206dcc:	3d c3 00 00 00       	cmp    $0xc3,%eax
  206dd1:	74 d8                	je     206dab <read_markers+0x24b>
  206dd3:	3d c4 00 00 00       	cmp    $0xc4,%eax
  206dd8:	75 75                	jne    206e4f <read_markers+0x2ef>
  206dda:	48 89 df             	mov    %rbx,%rdi
  206ddd:	e8 be 13 00 00       	callq  2081a0 <get_dht>
  206de2:	85 c0                	test   %eax,%eax
  206de4:	0f 85 56 ff ff ff    	jne    206d40 <read_markers+0x1e0>
  206dea:	e9 b2 00 00 00       	jmpq   206ea1 <read_markers+0x341>
  206def:	3d c9 00 00 00       	cmp    $0xc9,%eax
  206df4:	74 38                	je     206e2e <read_markers+0x2ce>
  206df6:	3d ca 00 00 00       	cmp    $0xca,%eax
  206dfb:	75 52                	jne    206e4f <read_markers+0x2ef>
  206dfd:	31 ed                	xor    %ebp,%ebp
  206dff:	48 89 df             	mov    %rbx,%rdi
  206e02:	31 f6                	xor    %esi,%esi
  206e04:	ba 01 00 00 00       	mov    $0x1,%edx
  206e09:	b9 01 00 00 00       	mov    $0x1,%ecx
  206e0e:	eb 30                	jmp    206e40 <read_markers+0x2e0>
  206e10:	31 ed                	xor    %ebp,%ebp
  206e12:	48 89 df             	mov    %rbx,%rdi
  206e15:	be 01 00 00 00       	mov    $0x1,%esi
  206e1a:	31 d2                	xor    %edx,%edx
  206e1c:	eb 0c                	jmp    206e2a <read_markers+0x2ca>
  206e1e:	31 ed                	xor    %ebp,%ebp
  206e20:	48 89 df             	mov    %rbx,%rdi
  206e23:	31 f6                	xor    %esi,%esi
  206e25:	ba 01 00 00 00       	mov    $0x1,%edx
  206e2a:	31 c9                	xor    %ecx,%ecx
  206e2c:	eb 12                	jmp    206e40 <read_markers+0x2e0>
  206e2e:	31 ed                	xor    %ebp,%ebp
  206e30:	48 89 df             	mov    %rbx,%rdi
  206e33:	31 f6                	xor    %esi,%esi
  206e35:	31 d2                	xor    %edx,%edx
  206e37:	b9 01 00 00 00       	mov    $0x1,%ecx
  206e3c:	90                   	nop
  206e3d:	90                   	nop
  206e3e:	90                   	nop
  206e3f:	90                   	nop
  206e40:	e8 ab 07 00 00       	callq  2075f0 <get_sof>
  206e45:	85 c0                	test   %eax,%eax
  206e47:	0f 85 f3 fe ff ff    	jne    206d40 <read_markers+0x1e0>
  206e4d:	eb 54                	jmp    206ea3 <read_markers+0x343>
  206e4f:	48 8b 0b             	mov    (%rbx),%rcx
  206e52:	c7 41 28 46 00 00 00 	movl   $0x46,0x28(%rcx)
  206e59:	e9 57 ff ff ff       	jmpq   206db5 <read_markers+0x255>
  206e5e:	48 8b 03             	mov    (%rbx),%rax
  206e61:	c7 40 28 57 00 00 00 	movl   $0x57,0x28(%rax)
  206e68:	48 89 df             	mov    %rbx,%rdi
  206e6b:	be 01 00 00 00       	mov    $0x1,%esi
  206e70:	ff 50 08             	callq  *0x8(%rax)
  206e73:	c7 83 3c 02 00 00 00 	movl   $0x0,0x23c(%rbx)
  206e7a:	00 00 00 
  206e7d:	bd 02 00 00 00       	mov    $0x2,%ebp
  206e82:	eb 1f                	jmp    206ea3 <read_markers+0x343>
  206e84:	48 89 df             	mov    %rbx,%rdi
  206e87:	e8 54 0c 00 00       	callq  207ae0 <get_sos>
  206e8c:	85 c0                	test   %eax,%eax
  206e8e:	74 11                	je     206ea1 <read_markers+0x341>
  206e90:	c7 83 3c 02 00 00 00 	movl   $0x0,0x23c(%rbx)
  206e97:	00 00 00 
  206e9a:	bd 01 00 00 00       	mov    $0x1,%ebp
  206e9f:	eb 02                	jmp    206ea3 <read_markers+0x343>
  206ea1:	31 ed                	xor    %ebp,%ebp
  206ea3:	89 e8                	mov    %ebp,%eax
  206ea5:	48 83 c4 08          	add    $0x8,%rsp
  206ea9:	5b                   	pop    %rbx
  206eaa:	5d                   	pop    %rbp
  206eab:	c3                   	retq   
  206eac:	cc                   	int3   
  206ead:	cc                   	int3   
  206eae:	cc                   	int3   
  206eaf:	cc                   	int3   

0000000000206eb0 <read_restart_marker>:
  206eb0:	53                   	push   %rbx
  206eb1:	48 89 fb             	mov    %rdi,%rbx
  206eb4:	8b 87 3c 02 00 00    	mov    0x23c(%rdi),%eax
  206eba:	85 c0                	test   %eax,%eax
  206ebc:	75 12                	jne    206ed0 <read_restart_marker+0x20>
  206ebe:	48 89 df             	mov    %rbx,%rdi
  206ec1:	e8 5a fa ff ff       	callq  206920 <next_marker>
  206ec6:	85 c0                	test   %eax,%eax
  206ec8:	74 69                	je     206f33 <read_restart_marker+0x83>
  206eca:	8b 83 3c 02 00 00    	mov    0x23c(%rbx),%eax
  206ed0:	48 8b 8b 68 02 00 00 	mov    0x268(%rbx),%rcx
  206ed7:	8b 71 20             	mov    0x20(%rcx),%esi
  206eda:	8d 8e d0 00 00 00    	lea    0xd0(%rsi),%ecx
  206ee0:	39 c8                	cmp    %ecx,%eax
  206ee2:	75 27                	jne    206f0b <read_restart_marker+0x5b>
  206ee4:	48 8b 03             	mov    (%rbx),%rax
  206ee7:	c7 40 28 64 00 00 00 	movl   $0x64,0x28(%rax)
  206eee:	89 70 2c             	mov    %esi,0x2c(%rax)
  206ef1:	48 8b 03             	mov    (%rbx),%rax
  206ef4:	48 89 df             	mov    %rbx,%rdi
  206ef7:	be 03 00 00 00       	mov    $0x3,%esi
  206efc:	ff 50 08             	callq  *0x8(%rax)
  206eff:	c7 83 3c 02 00 00 00 	movl   $0x0,0x23c(%rbx)
  206f06:	00 00 00 
  206f09:	eb 0e                	jmp    206f19 <read_restart_marker+0x69>
  206f0b:	48 8b 43 28          	mov    0x28(%rbx),%rax
  206f0f:	48 89 df             	mov    %rbx,%rdi
  206f12:	ff 50 28             	callq  *0x28(%rax)
  206f15:	85 c0                	test   %eax,%eax
  206f17:	74 1a                	je     206f33 <read_restart_marker+0x83>
  206f19:	48 8b 83 68 02 00 00 	mov    0x268(%rbx),%rax
  206f20:	8b 48 20             	mov    0x20(%rax),%ecx
  206f23:	83 c1 01             	add    $0x1,%ecx
  206f26:	83 e1 07             	and    $0x7,%ecx
  206f29:	89 48 20             	mov    %ecx,0x20(%rax)
  206f2c:	b8 01 00 00 00       	mov    $0x1,%eax
  206f31:	5b                   	pop    %rbx
  206f32:	c3                   	retq   
  206f33:	31 c0                	xor    %eax,%eax
  206f35:	5b                   	pop    %rbx
  206f36:	c3                   	retq   
  206f37:	cc                   	int3   
  206f38:	cc                   	int3   
  206f39:	cc                   	int3   
  206f3a:	cc                   	int3   
  206f3b:	cc                   	int3   
  206f3c:	cc                   	int3   
  206f3d:	cc                   	int3   
  206f3e:	cc                   	int3   
  206f3f:	cc                   	int3   

0000000000206f40 <skip_variable>:
  206f40:	55                   	push   %rbp
  206f41:	41 57                	push   %r15
  206f43:	41 56                	push   %r14
  206f45:	41 55                	push   %r13
  206f47:	41 54                	push   %r12
  206f49:	53                   	push   %rbx
  206f4a:	50                   	push   %rax
  206f4b:	49 89 fe             	mov    %rdi,%r14
  206f4e:	4c 8b 67 28          	mov    0x28(%rdi),%r12
  206f52:	4d 8b 6c 24 08       	mov    0x8(%r12),%r13
  206f57:	4d 85 ed             	test   %r13,%r13
  206f5a:	75 15                	jne    206f71 <skip_variable+0x31>
  206f5c:	4c 89 f7             	mov    %r14,%rdi
  206f5f:	41 ff 54 24 18       	callq  *0x18(%r12)
  206f64:	85 c0                	test   %eax,%eax
  206f66:	0f 84 91 00 00 00    	je     206ffd <skip_variable+0xbd>
  206f6c:	4d 8b 6c 24 08       	mov    0x8(%r12),%r13
  206f71:	49 8b 2c 24          	mov    (%r12),%rbp
  206f75:	44 0f b6 7d 00       	movzbl 0x0(%rbp),%r15d
  206f7a:	49 83 c5 ff          	add    $0xffffffffffffffff,%r13
  206f7e:	74 06                	je     206f86 <skip_variable+0x46>
  206f80:	48 83 c5 01          	add    $0x1,%rbp
  206f84:	eb 15                	jmp    206f9b <skip_variable+0x5b>
  206f86:	4c 89 f7             	mov    %r14,%rdi
  206f89:	41 ff 54 24 18       	callq  *0x18(%r12)
  206f8e:	85 c0                	test   %eax,%eax
  206f90:	74 6b                	je     206ffd <skip_variable+0xbd>
  206f92:	49 8b 2c 24          	mov    (%r12),%rbp
  206f96:	4d 8b 6c 24 08       	mov    0x8(%r12),%r13
  206f9b:	49 c1 e7 08          	shl    $0x8,%r15
  206f9f:	49 83 c5 ff          	add    $0xffffffffffffffff,%r13
  206fa3:	0f b6 5d 00          	movzbl 0x0(%rbp),%ebx
  206fa7:	48 83 c5 01          	add    $0x1,%rbp
  206fab:	4c 09 fb             	or     %r15,%rbx
  206fae:	48 83 c3 fe          	add    $0xfffffffffffffffe,%rbx
  206fb2:	49 8b 06             	mov    (%r14),%rax
  206fb5:	c7 40 28 5d 00 00 00 	movl   $0x5d,0x28(%rax)
  206fbc:	41 8b 8e 3c 02 00 00 	mov    0x23c(%r14),%ecx
  206fc3:	89 48 2c             	mov    %ecx,0x2c(%rax)
  206fc6:	49 8b 06             	mov    (%r14),%rax
  206fc9:	89 58 30             	mov    %ebx,0x30(%rax)
  206fcc:	49 8b 06             	mov    (%r14),%rax
  206fcf:	41 bf 01 00 00 00    	mov    $0x1,%r15d
  206fd5:	4c 89 f7             	mov    %r14,%rdi
  206fd8:	be 01 00 00 00       	mov    $0x1,%esi
  206fdd:	ff 50 08             	callq  *0x8(%rax)
  206fe0:	49 89 2c 24          	mov    %rbp,(%r12)
  206fe4:	4d 89 6c 24 08       	mov    %r13,0x8(%r12)
  206fe9:	48 85 db             	test   %rbx,%rbx
  206fec:	7e 12                	jle    207000 <skip_variable+0xc0>
  206fee:	49 8b 46 28          	mov    0x28(%r14),%rax
  206ff2:	4c 89 f7             	mov    %r14,%rdi
  206ff5:	48 89 de             	mov    %rbx,%rsi
  206ff8:	ff 50 20             	callq  *0x20(%rax)
  206ffb:	eb 03                	jmp    207000 <skip_variable+0xc0>
  206ffd:	45 31 ff             	xor    %r15d,%r15d
  207000:	44 89 f8             	mov    %r15d,%eax
  207003:	48 83 c4 08          	add    $0x8,%rsp
  207007:	5b                   	pop    %rbx
  207008:	41 5c                	pop    %r12
  20700a:	41 5d                	pop    %r13
  20700c:	41 5e                	pop    %r14
  20700e:	41 5f                	pop    %r15
  207010:	5d                   	pop    %rbp
  207011:	c3                   	retq   
  207012:	cc                   	int3   
  207013:	cc                   	int3   
  207014:	cc                   	int3   
  207015:	cc                   	int3   
  207016:	cc                   	int3   
  207017:	cc                   	int3   
  207018:	cc                   	int3   
  207019:	cc                   	int3   
  20701a:	cc                   	int3   
  20701b:	cc                   	int3   
  20701c:	cc                   	int3   
  20701d:	cc                   	int3   
  20701e:	cc                   	int3   
  20701f:	cc                   	int3   

0000000000207020 <get_interesting_appn>:
  207020:	55                   	push   %rbp
  207021:	41 57                	push   %r15
  207023:	41 56                	push   %r14
  207025:	41 55                	push   %r13
  207027:	41 54                	push   %r12
  207029:	53                   	push   %rbx
  20702a:	48 83 ec 28          	sub    $0x28,%rsp
  20702e:	49 89 ff             	mov    %rdi,%r15
  207031:	4c 8b 6f 28          	mov    0x28(%rdi),%r13
  207035:	49 8b 5d 08          	mov    0x8(%r13),%rbx
  207039:	48 85 db             	test   %rbx,%rbx
  20703c:	75 13                	jne    207051 <get_interesting_appn+0x31>
  20703e:	4c 89 ff             	mov    %r15,%rdi
  207041:	41 ff 55 18          	callq  *0x18(%r13)
  207045:	85 c0                	test   %eax,%eax
  207047:	0f 84 ec 00 00 00    	je     207139 <get_interesting_appn+0x119>
  20704d:	49 8b 5d 08          	mov    0x8(%r13),%rbx
  207051:	49 8b 6d 00          	mov    0x0(%r13),%rbp
  207055:	44 0f b6 75 00       	movzbl 0x0(%rbp),%r14d
  20705a:	48 83 c3 ff          	add    $0xffffffffffffffff,%rbx
  20705e:	74 0b                	je     20706b <get_interesting_appn+0x4b>
  207060:	4c 89 7c 24 10       	mov    %r15,0x10(%rsp)
  207065:	48 83 c5 01          	add    $0x1,%rbp
  207069:	eb 1c                	jmp    207087 <get_interesting_appn+0x67>
  20706b:	4c 89 ff             	mov    %r15,%rdi
  20706e:	41 ff 55 18          	callq  *0x18(%r13)
  207072:	85 c0                	test   %eax,%eax
  207074:	0f 84 bf 00 00 00    	je     207139 <get_interesting_appn+0x119>
  20707a:	4c 89 7c 24 10       	mov    %r15,0x10(%rsp)
  20707f:	49 8b 6d 00          	mov    0x0(%r13),%rbp
  207083:	49 8b 5d 08          	mov    0x8(%r13),%rbx
  207087:	49 c1 e6 08          	shl    $0x8,%r14
  20708b:	44 0f b6 65 00       	movzbl 0x0(%rbp),%r12d
  207090:	4d 09 f4             	or     %r14,%r12
  207093:	49 83 c4 fe          	add    $0xfffffffffffffffe,%r12
  207097:	45 31 ff             	xor    %r15d,%r15d
  20709a:	4d 85 e4             	test   %r12,%r12
  20709d:	44 89 e0             	mov    %r12d,%eax
  2070a0:	41 0f 4e c7          	cmovle %r15d,%eax
  2070a4:	49 83 fc 0d          	cmp    $0xd,%r12
  2070a8:	b9 0e 00 00 00       	mov    $0xe,%ecx
  2070ad:	0f 4e c8             	cmovle %eax,%ecx
  2070b0:	48 83 c5 01          	add    $0x1,%rbp
  2070b4:	48 83 c3 ff          	add    $0xffffffffffffffff,%rbx
  2070b8:	85 c9                	test   %ecx,%ecx
  2070ba:	89 4c 24 0c          	mov    %ecx,0xc(%rsp)
  2070be:	74 46                	je     207106 <get_interesting_appn+0xe6>
  2070c0:	41 89 cf             	mov    %ecx,%r15d
  2070c3:	45 31 f6             	xor    %r14d,%r14d
  2070c6:	48 85 db             	test   %rbx,%rbx
  2070c9:	74 24                	je     2070ef <get_interesting_appn+0xcf>
  2070cb:	90                   	nop
  2070cc:	90                   	nop
  2070cd:	90                   	nop
  2070ce:	90                   	nop
  2070cf:	90                   	nop
  2070d0:	0f b6 45 00          	movzbl 0x0(%rbp),%eax
  2070d4:	42 88 44 34 1a       	mov    %al,0x1a(%rsp,%r14,1)
  2070d9:	49 83 c6 01          	add    $0x1,%r14
  2070dd:	48 83 c5 01          	add    $0x1,%rbp
  2070e1:	48 83 c3 ff          	add    $0xffffffffffffffff,%rbx
  2070e5:	4d 39 f7             	cmp    %r14,%r15
  2070e8:	74 1c                	je     207106 <get_interesting_appn+0xe6>
  2070ea:	48 85 db             	test   %rbx,%rbx
  2070ed:	75 e1                	jne    2070d0 <get_interesting_appn+0xb0>
  2070ef:	48 8b 7c 24 10       	mov    0x10(%rsp),%rdi
  2070f4:	41 ff 55 18          	callq  *0x18(%r13)
  2070f8:	85 c0                	test   %eax,%eax
  2070fa:	74 3d                	je     207139 <get_interesting_appn+0x119>
  2070fc:	49 8b 6d 00          	mov    0x0(%r13),%rbp
  207100:	49 8b 5d 08          	mov    0x8(%r13),%rbx
  207104:	eb ca                	jmp    2070d0 <get_interesting_appn+0xb0>
  207106:	4d 29 fc             	sub    %r15,%r12
  207109:	4c 8b 74 24 10       	mov    0x10(%rsp),%r14
  20710e:	41 8b 86 3c 02 00 00 	mov    0x23c(%r14),%eax
  207115:	3d ee 00 00 00       	cmp    $0xee,%eax
  20711a:	74 21                	je     20713d <get_interesting_appn+0x11d>
  20711c:	3d e0 00 00 00       	cmp    $0xe0,%eax
  207121:	75 30                	jne    207153 <get_interesting_appn+0x133>
  207123:	48 8d 74 24 1a       	lea    0x1a(%rsp),%rsi
  207128:	4c 89 f7             	mov    %r14,%rdi
  20712b:	8b 54 24 0c          	mov    0xc(%rsp),%edx
  20712f:	4c 89 e1             	mov    %r12,%rcx
  207132:	e8 69 00 00 00       	callq  2071a0 <examine_app0>
  207137:	eb 2f                	jmp    207168 <get_interesting_appn+0x148>
  207139:	31 ed                	xor    %ebp,%ebp
  20713b:	eb 4a                	jmp    207187 <get_interesting_appn+0x167>
  20713d:	48 8d 74 24 1a       	lea    0x1a(%rsp),%rsi
  207142:	4c 89 f7             	mov    %r14,%rdi
  207145:	8b 54 24 0c          	mov    0xc(%rsp),%edx
  207149:	4c 89 e1             	mov    %r12,%rcx
  20714c:	e8 7f 02 00 00       	callq  2073d0 <examine_app14>
  207151:	eb 15                	jmp    207168 <get_interesting_appn+0x148>
  207153:	49 8b 0e             	mov    (%r14),%rcx
  207156:	c7 41 28 46 00 00 00 	movl   $0x46,0x28(%rcx)
  20715d:	89 41 2c             	mov    %eax,0x2c(%rcx)
  207160:	49 8b 06             	mov    (%r14),%rax
  207163:	4c 89 f7             	mov    %r14,%rdi
  207166:	ff 10                	callq  *(%rax)
  207168:	49 89 6d 00          	mov    %rbp,0x0(%r13)
  20716c:	49 89 5d 08          	mov    %rbx,0x8(%r13)
  207170:	bd 01 00 00 00       	mov    $0x1,%ebp
  207175:	4d 85 e4             	test   %r12,%r12
  207178:	7e 0d                	jle    207187 <get_interesting_appn+0x167>
  20717a:	49 8b 46 28          	mov    0x28(%r14),%rax
  20717e:	4c 89 f7             	mov    %r14,%rdi
  207181:	4c 89 e6             	mov    %r12,%rsi
  207184:	ff 50 20             	callq  *0x20(%rax)
  207187:	89 e8                	mov    %ebp,%eax
  207189:	48 83 c4 28          	add    $0x28,%rsp
  20718d:	5b                   	pop    %rbx
  20718e:	41 5c                	pop    %r12
  207190:	41 5d                	pop    %r13
  207192:	41 5e                	pop    %r14
  207194:	41 5f                	pop    %r15
  207196:	5d                   	pop    %rbp
  207197:	c3                   	retq   
  207198:	cc                   	int3   
  207199:	cc                   	int3   
  20719a:	cc                   	int3   
  20719b:	cc                   	int3   
  20719c:	cc                   	int3   
  20719d:	cc                   	int3   
  20719e:	cc                   	int3   
  20719f:	cc                   	int3   

00000000002071a0 <examine_app0>:
  2071a0:	41 57                	push   %r15
  2071a2:	41 56                	push   %r14
  2071a4:	53                   	push   %rbx
  2071a5:	49 89 f6             	mov    %rsi,%r14
  2071a8:	49 89 ff             	mov    %rdi,%r15
  2071ab:	89 d3                	mov    %edx,%ebx
  2071ad:	48 01 cb             	add    %rcx,%rbx
  2071b0:	83 fa 0e             	cmp    $0xe,%edx
  2071b3:	0f 82 6f 01 00 00    	jb     207328 <examine_app0+0x188>
  2071b9:	41 80 3e 4a          	cmpb   $0x4a,(%r14)
  2071bd:	0f 85 8c 01 00 00    	jne    20734f <examine_app0+0x1af>
  2071c3:	41 80 7e 01 46       	cmpb   $0x46,0x1(%r14)
  2071c8:	0f 85 81 01 00 00    	jne    20734f <examine_app0+0x1af>
  2071ce:	41 80 7e 02 49       	cmpb   $0x49,0x2(%r14)
  2071d3:	0f 85 61 01 00 00    	jne    20733a <examine_app0+0x19a>
  2071d9:	41 80 7e 03 46       	cmpb   $0x46,0x3(%r14)
  2071de:	0f 85 56 01 00 00    	jne    20733a <examine_app0+0x19a>
  2071e4:	41 80 7e 04 00       	cmpb   $0x0,0x4(%r14)
  2071e9:	0f 85 4b 01 00 00    	jne    20733a <examine_app0+0x19a>
  2071ef:	41 c7 87 78 01 00 00 	movl   $0x1,0x178(%r15)
  2071f6:	01 00 00 00 
  2071fa:	41 8a 46 05          	mov    0x5(%r14),%al
  2071fe:	41 88 87 7c 01 00 00 	mov    %al,0x17c(%r15)
  207205:	41 8a 56 06          	mov    0x6(%r14),%dl
  207209:	41 88 97 7d 01 00 00 	mov    %dl,0x17d(%r15)
  207210:	45 8a 46 07          	mov    0x7(%r14),%r8b
  207214:	45 88 87 7e 01 00 00 	mov    %r8b,0x17e(%r15)
  20721b:	41 0f b7 76 08       	movzwl 0x8(%r14),%esi
  207220:	66 c1 c6 08          	rol    $0x8,%si
  207224:	66 41 89 b7 80 01 00 	mov    %si,0x180(%r15)
  20722b:	00 
  20722c:	41 0f b7 7e 0a       	movzwl 0xa(%r14),%edi
  207231:	66 c1 c7 08          	rol    $0x8,%di
  207235:	66 41 89 bf 82 01 00 	mov    %di,0x182(%r15)
  20723c:	00 
  20723d:	8d 48 ff             	lea    -0x1(%rax),%ecx
  207240:	80 f9 01             	cmp    $0x1,%cl
  207243:	76 51                	jbe    207296 <examine_app0+0xf6>
  207245:	0f b6 c0             	movzbl %al,%eax
  207248:	49 8b 0f             	mov    (%r15),%rcx
  20724b:	c7 41 28 7a 00 00 00 	movl   $0x7a,0x28(%rcx)
  207252:	89 41 2c             	mov    %eax,0x2c(%rcx)
  207255:	41 0f b6 87 7d 01 00 	movzbl 0x17d(%r15),%eax
  20725c:	00 
  20725d:	49 8b 0f             	mov    (%r15),%rcx
  207260:	89 41 30             	mov    %eax,0x30(%rcx)
  207263:	49 8b 07             	mov    (%r15),%rax
  207266:	4c 89 ff             	mov    %r15,%rdi
  207269:	be ff ff ff ff       	mov    $0xffffffff,%esi
  20726e:	ff 50 08             	callq  *0x8(%rax)
  207271:	41 8a 87 7c 01 00 00 	mov    0x17c(%r15),%al
  207278:	41 8a 97 7d 01 00 00 	mov    0x17d(%r15),%dl
  20727f:	41 0f b7 b7 80 01 00 	movzwl 0x180(%r15),%esi
  207286:	00 
  207287:	41 0f b7 bf 82 01 00 	movzwl 0x182(%r15),%edi
  20728e:	00 
  20728f:	45 8a 87 7e 01 00 00 	mov    0x17e(%r15),%r8b
  207296:	49 8b 0f             	mov    (%r15),%rcx
  207299:	0f b6 c0             	movzbl %al,%eax
  20729c:	89 41 2c             	mov    %eax,0x2c(%rcx)
  20729f:	0f b6 c2             	movzbl %dl,%eax
  2072a2:	89 41 30             	mov    %eax,0x30(%rcx)
  2072a5:	0f b7 c6             	movzwl %si,%eax
  2072a8:	89 41 34             	mov    %eax,0x34(%rcx)
  2072ab:	0f b7 c7             	movzwl %di,%eax
  2072ae:	89 41 38             	mov    %eax,0x38(%rcx)
  2072b1:	41 0f b6 c0          	movzbl %r8b,%eax
  2072b5:	89 41 3c             	mov    %eax,0x3c(%rcx)
  2072b8:	c7 41 28 59 00 00 00 	movl   $0x59,0x28(%rcx)
  2072bf:	4c 89 ff             	mov    %r15,%rdi
  2072c2:	be 01 00 00 00       	mov    $0x1,%esi
  2072c7:	ff 51 08             	callq  *0x8(%rcx)
  2072ca:	41 8a 4e 0c          	mov    0xc(%r14),%cl
  2072ce:	41 8a 46 0d          	mov    0xd(%r14),%al
  2072d2:	89 c2                	mov    %eax,%edx
  2072d4:	08 ca                	or     %cl,%dl
  2072d6:	74 33                	je     20730b <examine_app0+0x16b>
  2072d8:	49 8b 07             	mov    (%r15),%rax
  2072db:	c7 40 28 5c 00 00 00 	movl   $0x5c,0x28(%rax)
  2072e2:	41 0f b6 4e 0c       	movzbl 0xc(%r14),%ecx
  2072e7:	89 48 2c             	mov    %ecx,0x2c(%rax)
  2072ea:	41 0f b6 46 0d       	movzbl 0xd(%r14),%eax
  2072ef:	49 8b 0f             	mov    (%r15),%rcx
  2072f2:	89 41 30             	mov    %eax,0x30(%rcx)
  2072f5:	49 8b 07             	mov    (%r15),%rax
  2072f8:	4c 89 ff             	mov    %r15,%rdi
  2072fb:	be 01 00 00 00       	mov    $0x1,%esi
  207300:	ff 50 08             	callq  *0x8(%rax)
  207303:	41 8a 4e 0c          	mov    0xc(%r14),%cl
  207307:	41 8a 46 0d          	mov    0xd(%r14),%al
  20730b:	48 83 c3 f2          	add    $0xfffffffffffffff2,%rbx
  20730f:	0f b6 c9             	movzbl %cl,%ecx
  207312:	0f b6 c0             	movzbl %al,%eax
  207315:	48 0f af c1          	imul   %rcx,%rax
  207319:	48 8d 04 40          	lea    (%rax,%rax,2),%rax
  20731d:	48 39 c3             	cmp    %rax,%rbx
  207320:	75 6c                	jne    20738e <examine_app0+0x1ee>
  207322:	5b                   	pop    %rbx
  207323:	41 5e                	pop    %r14
  207325:	41 5f                	pop    %r15
  207327:	c3                   	retq   
  207328:	83 fa 06             	cmp    $0x6,%edx
  20732b:	72 22                	jb     20734f <examine_app0+0x1af>
  20732d:	41 80 3e 4a          	cmpb   $0x4a,(%r14)
  207331:	75 1c                	jne    20734f <examine_app0+0x1af>
  207333:	41 80 7e 01 46       	cmpb   $0x46,0x1(%r14)
  207338:	75 15                	jne    20734f <examine_app0+0x1af>
  20733a:	41 80 7e 02 58       	cmpb   $0x58,0x2(%r14)
  20733f:	75 0e                	jne    20734f <examine_app0+0x1af>
  207341:	41 80 7e 03 58       	cmpb   $0x58,0x3(%r14)
  207346:	75 07                	jne    20734f <examine_app0+0x1af>
  207348:	41 80 7e 04 00       	cmpb   $0x0,0x4(%r14)
  20734d:	74 23                	je     207372 <examine_app0+0x1d2>
  20734f:	49 8b 07             	mov    (%r15),%rax
  207352:	c7 40 28 4f 00 00 00 	movl   $0x4f,0x28(%rax)
  207359:	89 58 2c             	mov    %ebx,0x2c(%rax)
  20735c:	49 8b 07             	mov    (%r15),%rax
  20735f:	48 8b 40 08          	mov    0x8(%rax),%rax
  207363:	4c 89 ff             	mov    %r15,%rdi
  207366:	be 01 00 00 00       	mov    $0x1,%esi
  20736b:	5b                   	pop    %rbx
  20736c:	41 5e                	pop    %r14
  20736e:	41 5f                	pop    %r15
  207370:	ff e0                	jmpq   *%rax
  207372:	41 8a 46 05          	mov    0x5(%r14),%al
  207376:	3c 13                	cmp    $0x13,%al
  207378:	74 20                	je     20739a <examine_app0+0x1fa>
  20737a:	3c 11                	cmp    $0x11,%al
  20737c:	74 28                	je     2073a6 <examine_app0+0x206>
  20737e:	3c 10                	cmp    $0x10,%al
  207380:	75 30                	jne    2073b2 <examine_app0+0x212>
  207382:	49 8b 07             	mov    (%r15),%rax
  207385:	c7 40 28 6e 00 00 00 	movl   $0x6e,0x28(%rax)
  20738c:	eb cb                	jmp    207359 <examine_app0+0x1b9>
  20738e:	49 8b 07             	mov    (%r15),%rax
  207391:	c7 40 28 5a 00 00 00 	movl   $0x5a,0x28(%rax)
  207398:	eb bf                	jmp    207359 <examine_app0+0x1b9>
  20739a:	49 8b 07             	mov    (%r15),%rax
  20739d:	c7 40 28 70 00 00 00 	movl   $0x70,0x28(%rax)
  2073a4:	eb b3                	jmp    207359 <examine_app0+0x1b9>
  2073a6:	49 8b 07             	mov    (%r15),%rax
  2073a9:	c7 40 28 6f 00 00 00 	movl   $0x6f,0x28(%rax)
  2073b0:	eb a7                	jmp    207359 <examine_app0+0x1b9>
  2073b2:	49 8b 07             	mov    (%r15),%rax
  2073b5:	c7 40 28 5b 00 00 00 	movl   $0x5b,0x28(%rax)
  2073bc:	41 0f b6 4e 05       	movzbl 0x5(%r14),%ecx
  2073c1:	89 48 2c             	mov    %ecx,0x2c(%rax)
  2073c4:	49 8b 07             	mov    (%r15),%rax
  2073c7:	89 58 30             	mov    %ebx,0x30(%rax)
  2073ca:	eb 90                	jmp    20735c <examine_app0+0x1bc>
  2073cc:	cc                   	int3   
  2073cd:	cc                   	int3   
  2073ce:	cc                   	int3   
  2073cf:	cc                   	int3   

00000000002073d0 <examine_app14>:
  2073d0:	55                   	push   %rbp
  2073d1:	53                   	push   %rbx
  2073d2:	50                   	push   %rax
  2073d3:	48 89 fb             	mov    %rdi,%rbx
  2073d6:	83 fa 0c             	cmp    $0xc,%edx
  2073d9:	0f 82 81 00 00 00    	jb     207460 <examine_app14+0x90>
  2073df:	80 3e 41             	cmpb   $0x41,(%rsi)
  2073e2:	75 7c                	jne    207460 <examine_app14+0x90>
  2073e4:	80 7e 01 64          	cmpb   $0x64,0x1(%rsi)
  2073e8:	75 76                	jne    207460 <examine_app14+0x90>
  2073ea:	80 7e 02 6f          	cmpb   $0x6f,0x2(%rsi)
  2073ee:	75 70                	jne    207460 <examine_app14+0x90>
  2073f0:	80 7e 03 62          	cmpb   $0x62,0x3(%rsi)
  2073f4:	75 6a                	jne    207460 <examine_app14+0x90>
  2073f6:	80 7e 04 65          	cmpb   $0x65,0x4(%rsi)
  2073fa:	75 64                	jne    207460 <examine_app14+0x90>
  2073fc:	0f b6 46 05          	movzbl 0x5(%rsi),%eax
  207400:	c1 e0 08             	shl    $0x8,%eax
  207403:	0f b6 4e 06          	movzbl 0x6(%rsi),%ecx
  207407:	09 c1                	or     %eax,%ecx
  207409:	0f b6 46 07          	movzbl 0x7(%rsi),%eax
  20740d:	c1 e0 08             	shl    $0x8,%eax
  207410:	0f b6 56 08          	movzbl 0x8(%rsi),%edx
  207414:	09 c2                	or     %eax,%edx
  207416:	0f b6 46 09          	movzbl 0x9(%rsi),%eax
  20741a:	c1 e0 08             	shl    $0x8,%eax
  20741d:	0f b6 7e 0a          	movzbl 0xa(%rsi),%edi
  207421:	09 c7                	or     %eax,%edi
  207423:	0f b6 6e 0b          	movzbl 0xb(%rsi),%ebp
  207427:	48 8b 03             	mov    (%rbx),%rax
  20742a:	89 48 2c             	mov    %ecx,0x2c(%rax)
  20742d:	89 50 30             	mov    %edx,0x30(%rax)
  207430:	89 78 34             	mov    %edi,0x34(%rax)
  207433:	89 68 38             	mov    %ebp,0x38(%rax)
  207436:	c7 40 28 4e 00 00 00 	movl   $0x4e,0x28(%rax)
  20743d:	48 89 df             	mov    %rbx,%rdi
  207440:	be 01 00 00 00       	mov    $0x1,%esi
  207445:	ff 50 08             	callq  *0x8(%rax)
  207448:	c7 83 84 01 00 00 01 	movl   $0x1,0x184(%rbx)
  20744f:	00 00 00 
  207452:	40 88 ab 88 01 00 00 	mov    %bpl,0x188(%rbx)
  207459:	48 83 c4 08          	add    $0x8,%rsp
  20745d:	5b                   	pop    %rbx
  20745e:	5d                   	pop    %rbp
  20745f:	c3                   	retq   
  207460:	48 8b 03             	mov    (%rbx),%rax
  207463:	c7 40 28 50 00 00 00 	movl   $0x50,0x28(%rax)
  20746a:	01 d1                	add    %edx,%ecx
  20746c:	89 48 2c             	mov    %ecx,0x2c(%rax)
  20746f:	48 8b 03             	mov    (%rbx),%rax
  207472:	48 8b 40 08          	mov    0x8(%rax),%rax
  207476:	48 89 df             	mov    %rbx,%rdi
  207479:	be 01 00 00 00       	mov    $0x1,%esi
  20747e:	48 83 c4 08          	add    $0x8,%rsp
  207482:	5b                   	pop    %rbx
  207483:	5d                   	pop    %rbp
  207484:	ff e0                	jmpq   *%rax
  207486:	cc                   	int3   
  207487:	cc                   	int3   
  207488:	cc                   	int3   
  207489:	cc                   	int3   
  20748a:	cc                   	int3   
  20748b:	cc                   	int3   
  20748c:	cc                   	int3   
  20748d:	cc                   	int3   
  20748e:	cc                   	int3   
  20748f:	cc                   	int3   

0000000000207490 <first_marker>:
  207490:	55                   	push   %rbp
  207491:	41 57                	push   %r15
  207493:	41 56                	push   %r14
  207495:	41 55                	push   %r13
  207497:	41 54                	push   %r12
  207499:	53                   	push   %rbx
  20749a:	50                   	push   %rax
  20749b:	49 89 fe             	mov    %rdi,%r14
  20749e:	4c 8b 7f 28          	mov    0x28(%rdi),%r15
  2074a2:	4d 8b 67 08          	mov    0x8(%r15),%r12
  2074a6:	4d 85 e4             	test   %r12,%r12
  2074a9:	75 0f                	jne    2074ba <first_marker+0x2a>
  2074ab:	4c 89 f7             	mov    %r14,%rdi
  2074ae:	41 ff 57 18          	callq  *0x18(%r15)
  2074b2:	85 c0                	test   %eax,%eax
  2074b4:	74 71                	je     207527 <first_marker+0x97>
  2074b6:	4d 8b 67 08          	mov    0x8(%r15),%r12
  2074ba:	49 8b 1f             	mov    (%r15),%rbx
  2074bd:	44 0f b6 2b          	movzbl (%rbx),%r13d
  2074c1:	49 83 c4 ff          	add    $0xffffffffffffffff,%r12
  2074c5:	74 06                	je     2074cd <first_marker+0x3d>
  2074c7:	48 83 c3 01          	add    $0x1,%rbx
  2074cb:	eb 12                	jmp    2074df <first_marker+0x4f>
  2074cd:	4c 89 f7             	mov    %r14,%rdi
  2074d0:	41 ff 57 18          	callq  *0x18(%r15)
  2074d4:	85 c0                	test   %eax,%eax
  2074d6:	74 4f                	je     207527 <first_marker+0x97>
  2074d8:	49 8b 1f             	mov    (%r15),%rbx
  2074db:	4d 8b 67 08          	mov    0x8(%r15),%r12
  2074df:	49 83 c4 ff          	add    $0xffffffffffffffff,%r12
  2074e3:	8a 03                	mov    (%rbx),%al
  2074e5:	48 83 c3 01          	add    $0x1,%rbx
  2074e9:	0f b6 e8             	movzbl %al,%ebp
  2074ec:	41 80 fd ff          	cmp    $0xff,%r13b
  2074f0:	75 04                	jne    2074f6 <first_marker+0x66>
  2074f2:	3c d8                	cmp    $0xd8,%al
  2074f4:	74 1c                	je     207512 <first_marker+0x82>
  2074f6:	49 8b 06             	mov    (%r14),%rax
  2074f9:	c7 40 28 37 00 00 00 	movl   $0x37,0x28(%rax)
  207500:	44 89 68 2c          	mov    %r13d,0x2c(%rax)
  207504:	49 8b 06             	mov    (%r14),%rax
  207507:	89 68 30             	mov    %ebp,0x30(%rax)
  20750a:	49 8b 06             	mov    (%r14),%rax
  20750d:	4c 89 f7             	mov    %r14,%rdi
  207510:	ff 10                	callq  *(%rax)
  207512:	41 89 ae 3c 02 00 00 	mov    %ebp,0x23c(%r14)
  207519:	49 89 1f             	mov    %rbx,(%r15)
  20751c:	4d 89 67 08          	mov    %r12,0x8(%r15)
  207520:	b8 01 00 00 00       	mov    $0x1,%eax
  207525:	eb 02                	jmp    207529 <first_marker+0x99>
  207527:	31 c0                	xor    %eax,%eax
  207529:	48 83 c4 08          	add    $0x8,%rsp
  20752d:	5b                   	pop    %rbx
  20752e:	41 5c                	pop    %r12
  207530:	41 5d                	pop    %r13
  207532:	41 5e                	pop    %r14
  207534:	41 5f                	pop    %r15
  207536:	5d                   	pop    %rbp
  207537:	c3                   	retq   
  207538:	cc                   	int3   
  207539:	cc                   	int3   
  20753a:	cc                   	int3   
  20753b:	cc                   	int3   
  20753c:	cc                   	int3   
  20753d:	cc                   	int3   
  20753e:	cc                   	int3   
  20753f:	cc                   	int3   

0000000000207540 <get_soi>:
  207540:	53                   	push   %rbx
  207541:	48 89 fb             	mov    %rdi,%rbx
  207544:	48 8b 07             	mov    (%rdi),%rax
  207547:	c7 40 28 68 00 00 00 	movl   $0x68,0x28(%rax)
  20754e:	be 01 00 00 00       	mov    $0x1,%esi
  207553:	ff 50 08             	callq  *0x8(%rax)
  207556:	48 8b 83 68 02 00 00 	mov    0x268(%rbx),%rax
  20755d:	83 78 18 00          	cmpl   $0x0,0x18(%rax)
  207561:	74 16                	je     207579 <get_soi+0x39>
  207563:	48 8b 03             	mov    (%rbx),%rax
  207566:	c7 40 28 40 00 00 00 	movl   $0x40,0x28(%rax)
  20756d:	48 89 df             	mov    %rbx,%rdi
  207570:	ff 10                	callq  *(%rax)
  207572:	48 8b 83 68 02 00 00 	mov    0x268(%rbx),%rax
  207579:	0f 57 c0             	xorps  %xmm0,%xmm0
  20757c:	0f 11 83 44 01 00 00 	movups %xmm0,0x144(%rbx)
  207583:	0f 28 05 86 95 ff ff 	movaps -0x6a7a(%rip),%xmm0        # 200b10 <_IO_stdin_used+0xac>
  20758a:	0f 11 83 54 01 00 00 	movups %xmm0,0x154(%rbx)
  207591:	0f 28 05 38 95 ff ff 	movaps -0x6ac8(%rip),%xmm0        # 200ad0 <_IO_stdin_used+0x6c>
  207598:	0f 11 83 64 01 00 00 	movups %xmm0,0x164(%rbx)
  20759f:	48 c7 83 74 01 00 00 	movq   $0x0,0x174(%rbx)
  2075a6:	00 00 00 00 
  2075aa:	c7 43 3c 00 00 00 00 	movl   $0x0,0x3c(%rbx)
  2075b1:	48 c7 83 8c 01 00 00 	movq   $0x0,0x18c(%rbx)
  2075b8:	00 00 00 00 
  2075bc:	66 c7 83 7c 01 00 00 	movw   $0x101,0x17c(%rbx)
  2075c3:	01 01 
  2075c5:	c6 83 7e 01 00 00 00 	movb   $0x0,0x17e(%rbx)
  2075cc:	48 c7 83 80 01 00 00 	movq   $0x10001,0x180(%rbx)
  2075d3:	01 00 01 00 
  2075d7:	c6 83 88 01 00 00 00 	movb   $0x0,0x188(%rbx)
  2075de:	c7 40 18 01 00 00 00 	movl   $0x1,0x18(%rax)
  2075e5:	5b                   	pop    %rbx
  2075e6:	c3                   	retq   
  2075e7:	cc                   	int3   
  2075e8:	cc                   	int3   
  2075e9:	cc                   	int3   
  2075ea:	cc                   	int3   
  2075eb:	cc                   	int3   
  2075ec:	cc                   	int3   
  2075ed:	cc                   	int3   
  2075ee:	cc                   	int3   
  2075ef:	cc                   	int3   

00000000002075f0 <get_sof>:
  2075f0:	55                   	push   %rbp
  2075f1:	41 57                	push   %r15
  2075f3:	41 56                	push   %r14
  2075f5:	41 55                	push   %r13
  2075f7:	41 54                	push   %r12
  2075f9:	53                   	push   %rbx
  2075fa:	48 83 ec 28          	sub    $0x28,%rsp
  2075fe:	48 8b 47 28          	mov    0x28(%rdi),%rax
  207602:	4c 8b 20             	mov    (%rax),%r12
  207605:	48 89 44 24 18       	mov    %rax,0x18(%rsp)
  20760a:	4c 8b 68 08          	mov    0x8(%rax),%r13
  20760e:	89 b7 38 01 00 00    	mov    %esi,0x138(%rdi)
  207614:	89 97 3c 01 00 00    	mov    %edx,0x13c(%rdi)
  20761a:	89 8f 40 01 00 00    	mov    %ecx,0x140(%rdi)
  207620:	4d 85 ed             	test   %r13,%r13
  207623:	48 89 7c 24 10       	mov    %rdi,0x10(%rsp)
  207628:	75 1c                	jne    207646 <get_sof+0x56>
  20762a:	48 8b 5c 24 18       	mov    0x18(%rsp),%rbx
  20762f:	ff 53 18             	callq  *0x18(%rbx)
  207632:	85 c0                	test   %eax,%eax
  207634:	0f 84 6c 04 00 00    	je     207aa6 <get_sof+0x4b6>
  20763a:	4c 8b 23             	mov    (%rbx),%r12
  20763d:	4c 8b 6b 08          	mov    0x8(%rbx),%r13
  207641:	48 8b 7c 24 10       	mov    0x10(%rsp),%rdi
  207646:	45 0f b6 34 24       	movzbl (%r12),%r14d
  20764b:	49 83 c5 ff          	add    $0xffffffffffffffff,%r13
  20764f:	74 06                	je     207657 <get_sof+0x67>
  207651:	49 83 c4 01          	add    $0x1,%r12
  207655:	eb 1c                	jmp    207673 <get_sof+0x83>
  207657:	48 8b 5c 24 18       	mov    0x18(%rsp),%rbx
  20765c:	ff 53 18             	callq  *0x18(%rbx)
  20765f:	85 c0                	test   %eax,%eax
  207661:	0f 84 3f 04 00 00    	je     207aa6 <get_sof+0x4b6>
  207667:	4c 8b 23             	mov    (%rbx),%r12
  20766a:	4c 8b 6b 08          	mov    0x8(%rbx),%r13
  20766e:	48 8b 7c 24 10       	mov    0x10(%rsp),%rdi
  207673:	45 0f b6 3c 24       	movzbl (%r12),%r15d
  207678:	49 83 c5 ff          	add    $0xffffffffffffffff,%r13
  20767c:	74 06                	je     207684 <get_sof+0x94>
  20767e:	49 83 c4 01          	add    $0x1,%r12
  207682:	eb 1d                	jmp    2076a1 <get_sof+0xb1>
  207684:	48 8b 6c 24 18       	mov    0x18(%rsp),%rbp
  207689:	ff 55 18             	callq  *0x18(%rbp)
  20768c:	85 c0                	test   %eax,%eax
  20768e:	0f 84 12 04 00 00    	je     207aa6 <get_sof+0x4b6>
  207694:	4c 8b 65 00          	mov    0x0(%rbp),%r12
  207698:	4c 8b 6d 08          	mov    0x8(%rbp),%r13
  20769c:	48 8b 7c 24 10       	mov    0x10(%rsp),%rdi
  2076a1:	41 0f b6 04 24       	movzbl (%r12),%eax
  2076a6:	89 87 28 01 00 00    	mov    %eax,0x128(%rdi)
  2076ac:	49 83 c5 ff          	add    $0xffffffffffffffff,%r13
  2076b0:	74 06                	je     2076b8 <get_sof+0xc8>
  2076b2:	49 83 c4 01          	add    $0x1,%r12
  2076b6:	eb 1d                	jmp    2076d5 <get_sof+0xe5>
  2076b8:	48 8b 6c 24 18       	mov    0x18(%rsp),%rbp
  2076bd:	ff 55 18             	callq  *0x18(%rbp)
  2076c0:	85 c0                	test   %eax,%eax
  2076c2:	0f 84 de 03 00 00    	je     207aa6 <get_sof+0x4b6>
  2076c8:	4c 8b 65 00          	mov    0x0(%rbp),%r12
  2076cc:	4c 8b 6d 08          	mov    0x8(%rbp),%r13
  2076d0:	48 8b 7c 24 10       	mov    0x10(%rsp),%rdi
  2076d5:	41 0f b6 04 24       	movzbl (%r12),%eax
  2076da:	c1 e0 08             	shl    $0x8,%eax
  2076dd:	89 47 34             	mov    %eax,0x34(%rdi)
  2076e0:	49 83 c5 ff          	add    $0xffffffffffffffff,%r13
  2076e4:	74 06                	je     2076ec <get_sof+0xfc>
  2076e6:	49 83 c4 01          	add    $0x1,%r12
  2076ea:	eb 21                	jmp    20770d <get_sof+0x11d>
  2076ec:	48 8b 6c 24 18       	mov    0x18(%rsp),%rbp
  2076f1:	48 89 fb             	mov    %rdi,%rbx
  2076f4:	ff 55 18             	callq  *0x18(%rbp)
  2076f7:	85 c0                	test   %eax,%eax
  2076f9:	0f 84 a7 03 00 00    	je     207aa6 <get_sof+0x4b6>
  2076ff:	4c 8b 65 00          	mov    0x0(%rbp),%r12
  207703:	4c 8b 6d 08          	mov    0x8(%rbp),%r13
  207707:	8b 43 34             	mov    0x34(%rbx),%eax
  20770a:	48 89 df             	mov    %rbx,%rdi
  20770d:	41 0f b6 0c 24       	movzbl (%r12),%ecx
  207712:	01 c1                	add    %eax,%ecx
  207714:	89 4f 34             	mov    %ecx,0x34(%rdi)
  207717:	49 83 c5 ff          	add    $0xffffffffffffffff,%r13
  20771b:	74 06                	je     207723 <get_sof+0x133>
  20771d:	49 83 c4 01          	add    $0x1,%r12
  207721:	eb 1d                	jmp    207740 <get_sof+0x150>
  207723:	48 8b 6c 24 18       	mov    0x18(%rsp),%rbp
  207728:	ff 55 18             	callq  *0x18(%rbp)
  20772b:	85 c0                	test   %eax,%eax
  20772d:	0f 84 73 03 00 00    	je     207aa6 <get_sof+0x4b6>
  207733:	4c 8b 65 00          	mov    0x0(%rbp),%r12
  207737:	4c 8b 6d 08          	mov    0x8(%rbp),%r13
  20773b:	48 8b 7c 24 10       	mov    0x10(%rsp),%rdi
  207740:	41 0f b6 04 24       	movzbl (%r12),%eax
  207745:	c1 e0 08             	shl    $0x8,%eax
  207748:	89 47 30             	mov    %eax,0x30(%rdi)
  20774b:	49 83 c5 ff          	add    $0xffffffffffffffff,%r13
  20774f:	74 06                	je     207757 <get_sof+0x167>
  207751:	49 83 c4 01          	add    $0x1,%r12
  207755:	eb 21                	jmp    207778 <get_sof+0x188>
  207757:	48 8b 6c 24 18       	mov    0x18(%rsp),%rbp
  20775c:	48 89 fb             	mov    %rdi,%rbx
  20775f:	ff 55 18             	callq  *0x18(%rbp)
  207762:	85 c0                	test   %eax,%eax
  207764:	0f 84 3c 03 00 00    	je     207aa6 <get_sof+0x4b6>
  20776a:	4c 8b 65 00          	mov    0x0(%rbp),%r12
  20776e:	4c 8b 6d 08          	mov    0x8(%rbp),%r13
  207772:	8b 43 30             	mov    0x30(%rbx),%eax
  207775:	48 89 df             	mov    %rbx,%rdi
  207778:	41 0f b6 0c 24       	movzbl (%r12),%ecx
  20777d:	01 c1                	add    %eax,%ecx
  20777f:	89 4f 30             	mov    %ecx,0x30(%rdi)
  207782:	49 83 c5 ff          	add    $0xffffffffffffffff,%r13
  207786:	74 06                	je     20778e <get_sof+0x19e>
  207788:	49 83 c4 01          	add    $0x1,%r12
  20778c:	eb 1d                	jmp    2077ab <get_sof+0x1bb>
  20778e:	48 8b 6c 24 18       	mov    0x18(%rsp),%rbp
  207793:	ff 55 18             	callq  *0x18(%rbp)
  207796:	85 c0                	test   %eax,%eax
  207798:	0f 84 08 03 00 00    	je     207aa6 <get_sof+0x4b6>
  20779e:	4c 8b 65 00          	mov    0x0(%rbp),%r12
  2077a2:	4c 8b 6d 08          	mov    0x8(%rbp),%r13
  2077a6:	48 8b 7c 24 10       	mov    0x10(%rsp),%rdi
  2077ab:	49 c1 e6 08          	shl    $0x8,%r14
  2077af:	4d 09 f7             	or     %r14,%r15
  2077b2:	41 0f b6 04 24       	movzbl (%r12),%eax
  2077b7:	89 47 38             	mov    %eax,0x38(%rdi)
  2077ba:	48 8b 07             	mov    (%rdi),%rax
  2077bd:	8b 8f 3c 02 00 00    	mov    0x23c(%rdi),%ecx
  2077c3:	89 48 2c             	mov    %ecx,0x2c(%rax)
  2077c6:	8b 4f 30             	mov    0x30(%rdi),%ecx
  2077c9:	89 48 30             	mov    %ecx,0x30(%rax)
  2077cc:	8b 4f 34             	mov    0x34(%rdi),%ecx
  2077cf:	89 48 34             	mov    %ecx,0x34(%rax)
  2077d2:	8b 4f 38             	mov    0x38(%rdi),%ecx
  2077d5:	89 48 38             	mov    %ecx,0x38(%rax)
  2077d8:	c7 40 28 66 00 00 00 	movl   $0x66,0x28(%rax)
  2077df:	be 01 00 00 00       	mov    $0x1,%esi
  2077e4:	ff 50 08             	callq  *0x8(%rax)
  2077e7:	48 8b 7c 24 10       	mov    0x10(%rsp),%rdi
  2077ec:	48 8b 87 68 02 00 00 	mov    0x268(%rdi),%rax
  2077f3:	83 78 1c 00          	cmpl   $0x0,0x1c(%rax)
  2077f7:	74 11                	je     20780a <get_sof+0x21a>
  2077f9:	48 8b 07             	mov    (%rdi),%rax
  2077fc:	c7 40 28 3d 00 00 00 	movl   $0x3d,0x28(%rax)
  207803:	ff 10                	callq  *(%rax)
  207805:	48 8b 7c 24 10       	mov    0x10(%rsp),%rdi
  20780a:	49 83 c7 f8          	add    $0xfffffffffffffff8,%r15
  20780e:	83 7f 34 00          	cmpl   $0x0,0x34(%rdi)
  207812:	74 0d                	je     207821 <get_sof+0x231>
  207814:	83 7f 30 00          	cmpl   $0x0,0x30(%rdi)
  207818:	74 07                	je     207821 <get_sof+0x231>
  20781a:	8b 47 38             	mov    0x38(%rdi),%eax
  20781d:	85 c0                	test   %eax,%eax
  20781f:	7f 14                	jg     207835 <get_sof+0x245>
  207821:	48 8b 07             	mov    (%rdi),%rax
  207824:	c7 40 28 21 00 00 00 	movl   $0x21,0x28(%rax)
  20782b:	ff 10                	callq  *(%rax)
  20782d:	48 8b 7c 24 10       	mov    0x10(%rsp),%rdi
  207832:	8b 47 38             	mov    0x38(%rdi),%eax
  207835:	8d 04 40             	lea    (%rax,%rax,2),%eax
  207838:	48 98                	cltq   
  20783a:	49 39 c7             	cmp    %rax,%r15
  20783d:	74 11                	je     207850 <get_sof+0x260>
  20783f:	48 8b 07             	mov    (%rdi),%rax
  207842:	c7 40 28 0c 00 00 00 	movl   $0xc,0x28(%rax)
  207849:	ff 10                	callq  *(%rax)
  20784b:	48 8b 7c 24 10       	mov    0x10(%rsp),%rdi
  207850:	48 83 bf 30 01 00 00 	cmpq   $0x0,0x130(%rdi)
  207857:	00 
  207858:	75 23                	jne    20787d <get_sof+0x28d>
  20785a:	48 8b 47 08          	mov    0x8(%rdi),%rax
  20785e:	48 63 4f 38          	movslq 0x38(%rdi),%rcx
  207862:	48 c1 e1 05          	shl    $0x5,%rcx
  207866:	48 8d 14 49          	lea    (%rcx,%rcx,2),%rdx
  20786a:	be 01 00 00 00       	mov    $0x1,%esi
  20786f:	ff 10                	callq  *(%rax)
  207871:	48 8b 7c 24 10       	mov    0x10(%rsp),%rdi
  207876:	48 89 87 30 01 00 00 	mov    %rax,0x130(%rdi)
  20787d:	49 83 c4 01          	add    $0x1,%r12
  207881:	49 83 c5 ff          	add    $0xffffffffffffffff,%r13
  207885:	83 7f 38 00          	cmpl   $0x0,0x38(%rdi)
  207889:	0f 8e 1b 02 00 00    	jle    207aaa <get_sof+0x4ba>
  20788f:	31 db                	xor    %ebx,%ebx
  207891:	41 bf fe ff ff ff    	mov    $0xfffffffe,%r15d
  207897:	c7 44 24 24 01 00 00 	movl   $0x1,0x24(%rsp)
  20789e:	00 
  20789f:	c6 44 24 0f 03       	movb   $0x3,0xf(%rsp)
  2078a4:	4d 85 ed             	test   %r13,%r13
  2078a7:	0f 85 86 00 00 00    	jne    207933 <get_sof+0x343>
  2078ad:	eb 67                	jmp    207916 <get_sof+0x326>
  2078af:	90                   	nop
  2078b0:	49 83 c4 01          	add    $0x1,%r12
  2078b4:	41 0f b6 04 24       	movzbl (%r12),%eax
  2078b9:	41 89 46 10          	mov    %eax,0x10(%r14)
  2078bd:	48 8b 07             	mov    (%rdi),%rax
  2078c0:	41 8b 0e             	mov    (%r14),%ecx
  2078c3:	89 48 2c             	mov    %ecx,0x2c(%rax)
  2078c6:	41 8b 4e 08          	mov    0x8(%r14),%ecx
  2078ca:	89 48 30             	mov    %ecx,0x30(%rax)
  2078cd:	41 8b 4e 0c          	mov    0xc(%r14),%ecx
  2078d1:	89 48 34             	mov    %ecx,0x34(%rax)
  2078d4:	41 8b 4e 10          	mov    0x10(%r14),%ecx
  2078d8:	89 48 38             	mov    %ecx,0x38(%rax)
  2078db:	c7 40 28 67 00 00 00 	movl   $0x67,0x28(%rax)
  2078e2:	be 01 00 00 00       	mov    $0x1,%esi
  2078e7:	ff 50 08             	callq  *0x8(%rax)
  2078ea:	48 8b 7c 24 10       	mov    0x10(%rsp),%rdi
  2078ef:	83 c3 01             	add    $0x1,%ebx
  2078f2:	49 83 c4 01          	add    $0x1,%r12
  2078f6:	49 83 c5 ff          	add    $0xffffffffffffffff,%r13
  2078fa:	41 83 c7 01          	add    $0x1,%r15d
  2078fe:	83 44 24 24 ff       	addl   $0xffffffff,0x24(%rsp)
  207903:	80 44 24 0f 01       	addb   $0x1,0xf(%rsp)
  207908:	3b 5f 38             	cmp    0x38(%rdi),%ebx
  20790b:	0f 8d 99 01 00 00    	jge    207aaa <get_sof+0x4ba>
  207911:	4d 85 ed             	test   %r13,%r13
  207914:	75 1d                	jne    207933 <get_sof+0x343>
  207916:	48 8b 6c 24 18       	mov    0x18(%rsp),%rbp
  20791b:	ff 55 18             	callq  *0x18(%rbp)
  20791e:	85 c0                	test   %eax,%eax
  207920:	0f 84 80 01 00 00    	je     207aa6 <get_sof+0x4b6>
  207926:	4c 8b 65 00          	mov    0x0(%rbp),%r12
  20792a:	4c 8b 6d 08          	mov    0x8(%rbp),%r13
  20792e:	48 8b 7c 24 10       	mov    0x10(%rsp),%rdi
  207933:	45 89 ff             	mov    %r15d,%r15d
  207936:	49 83 c5 ff          	add    $0xffffffffffffffff,%r13
  20793a:	41 0f b6 2c 24       	movzbl (%r12),%ebp
  20793f:	4c 8b b7 30 01 00 00 	mov    0x130(%rdi),%r14
  207946:	85 db                	test   %ebx,%ebx
  207948:	0f 84 e1 00 00 00    	je     207a2f <get_sof+0x43f>
  20794e:	0f b6 4c 24 0f       	movzbl 0xf(%rsp),%ecx
  207953:	89 c8                	mov    %ecx,%eax
  207955:	83 e0 03             	and    $0x3,%eax
  207958:	48 c1 e0 05          	shl    $0x5,%rax
  20795c:	4c 8d 14 40          	lea    (%rax,%rax,2),%r10
  207960:	83 e1 03             	and    $0x3,%ecx
  207963:	03 4c 24 24          	add    0x24(%rsp),%ecx
  207967:	44 8d 43 ff          	lea    -0x1(%rbx),%r8d
  20796b:	44 8d 4b fe          	lea    -0x2(%rbx),%r9d
  20796f:	89 de                	mov    %ebx,%esi
  207971:	4c 89 f2             	mov    %r14,%rdx
  207974:	90                   	nop
  207975:	90                   	nop
  207976:	90                   	nop
  207977:	90                   	nop
  207978:	90                   	nop
  207979:	90                   	nop
  20797a:	90                   	nop
  20797b:	90                   	nop
  20797c:	90                   	nop
  20797d:	90                   	nop
  20797e:	90                   	nop
  20797f:	90                   	nop
  207980:	39 2a                	cmp    %ebp,(%rdx)
  207982:	74 1c                	je     2079a0 <get_sof+0x3b0>
  207984:	48 83 c2 60          	add    $0x60,%rdx
  207988:	83 c6 ff             	add    $0xffffffff,%esi
  20798b:	75 f3                	jne    207980 <get_sof+0x390>
  20798d:	49 89 d6             	mov    %rdx,%r14
  207990:	e9 9a 00 00 00       	jmpq   207a2f <get_sof+0x43f>
  207995:	90                   	nop
  207996:	90                   	nop
  207997:	90                   	nop
  207998:	90                   	nop
  207999:	90                   	nop
  20799a:	90                   	nop
  20799b:	90                   	nop
  20799c:	90                   	nop
  20799d:	90                   	nop
  20799e:	90                   	nop
  20799f:	90                   	nop
  2079a0:	41 8b 2e             	mov    (%r14),%ebp
  2079a3:	49 8d 56 60          	lea    0x60(%r14),%rdx
  2079a7:	83 fb 02             	cmp    $0x2,%ebx
  2079aa:	72 4b                	jb     2079f7 <get_sof+0x407>
  2079ac:	41 83 f9 03          	cmp    $0x3,%r9d
  2079b0:	73 1a                	jae    2079cc <get_sof+0x3dc>
  2079b2:	eb 48                	jmp    2079fc <get_sof+0x40c>
  2079b4:	90                   	nop
  2079b5:	90                   	nop
  2079b6:	90                   	nop
  2079b7:	90                   	nop
  2079b8:	90                   	nop
  2079b9:	90                   	nop
  2079ba:	90                   	nop
  2079bb:	90                   	nop
  2079bc:	90                   	nop
  2079bd:	90                   	nop
  2079be:	90                   	nop
  2079bf:	90                   	nop
  2079c0:	48 81 c2 80 01 00 00 	add    $0x180,%rdx
  2079c7:	83 c1 04             	add    $0x4,%ecx
  2079ca:	74 30                	je     2079fc <get_sof+0x40c>
  2079cc:	8b 02                	mov    (%rdx),%eax
  2079ce:	8b 72 60             	mov    0x60(%rdx),%esi
  2079d1:	39 e8                	cmp    %ebp,%eax
  2079d3:	7d 02                	jge    2079d7 <get_sof+0x3e7>
  2079d5:	89 e8                	mov    %ebp,%eax
  2079d7:	39 c6                	cmp    %eax,%esi
  2079d9:	7d 02                	jge    2079dd <get_sof+0x3ed>
  2079db:	89 c6                	mov    %eax,%esi
  2079dd:	8b 82 c0 00 00 00    	mov    0xc0(%rdx),%eax
  2079e3:	39 f0                	cmp    %esi,%eax
  2079e5:	7d 02                	jge    2079e9 <get_sof+0x3f9>
  2079e7:	89 f0                	mov    %esi,%eax
  2079e9:	8b aa 20 01 00 00    	mov    0x120(%rdx),%ebp
  2079ef:	39 c5                	cmp    %eax,%ebp
  2079f1:	7d cd                	jge    2079c0 <get_sof+0x3d0>
  2079f3:	89 c5                	mov    %eax,%ebp
  2079f5:	eb c9                	jmp    2079c0 <get_sof+0x3d0>
  2079f7:	49 89 d6             	mov    %rdx,%r14
  2079fa:	eb 30                	jmp    207a2c <get_sof+0x43c>
  2079fc:	49 81 c6 c0 00 00 00 	add    $0xc0,%r14
  207a03:	41 f6 c0 03          	test   $0x3,%r8b
  207a07:	74 18                	je     207a21 <get_sof+0x431>
  207a09:	31 f6                	xor    %esi,%esi
  207a0b:	90                   	nop
  207a0c:	90                   	nop
  207a0d:	90                   	nop
  207a0e:	90                   	nop
  207a0f:	90                   	nop
  207a10:	8b 04 32             	mov    (%rdx,%rsi,1),%eax
  207a13:	39 e8                	cmp    %ebp,%eax
  207a15:	0f 4d e8             	cmovge %eax,%ebp
  207a18:	48 83 c6 60          	add    $0x60,%rsi
  207a1c:	41 39 f2             	cmp    %esi,%r10d
  207a1f:	75 ef                	jne    207a10 <get_sof+0x420>
  207a21:	4b 8d 04 7f          	lea    (%r15,%r15,2),%rax
  207a25:	48 c1 e0 05          	shl    $0x5,%rax
  207a29:	49 01 c6             	add    %rax,%r14
  207a2c:	83 c5 01             	add    $0x1,%ebp
  207a2f:	41 89 2e             	mov    %ebp,(%r14)
  207a32:	41 89 5e 04          	mov    %ebx,0x4(%r14)
  207a36:	4d 85 ed             	test   %r13,%r13
  207a39:	74 15                	je     207a50 <get_sof+0x460>
  207a3b:	49 83 c4 01          	add    $0x1,%r12
  207a3f:	eb 28                	jmp    207a69 <get_sof+0x479>
  207a41:	90                   	nop
  207a42:	90                   	nop
  207a43:	90                   	nop
  207a44:	90                   	nop
  207a45:	90                   	nop
  207a46:	90                   	nop
  207a47:	90                   	nop
  207a48:	90                   	nop
  207a49:	90                   	nop
  207a4a:	90                   	nop
  207a4b:	90                   	nop
  207a4c:	90                   	nop
  207a4d:	90                   	nop
  207a4e:	90                   	nop
  207a4f:	90                   	nop
  207a50:	48 8b 6c 24 18       	mov    0x18(%rsp),%rbp
  207a55:	ff 55 18             	callq  *0x18(%rbp)
  207a58:	85 c0                	test   %eax,%eax
  207a5a:	74 4a                	je     207aa6 <get_sof+0x4b6>
  207a5c:	4c 8b 65 00          	mov    0x0(%rbp),%r12
  207a60:	4c 8b 6d 08          	mov    0x8(%rbp),%r13
  207a64:	48 8b 7c 24 10       	mov    0x10(%rsp),%rdi
  207a69:	41 0f b6 04 24       	movzbl (%r12),%eax
  207a6e:	89 c1                	mov    %eax,%ecx
  207a70:	c1 e9 04             	shr    $0x4,%ecx
  207a73:	83 e0 0f             	and    $0xf,%eax
  207a76:	41 89 4e 08          	mov    %ecx,0x8(%r14)
  207a7a:	41 89 46 0c          	mov    %eax,0xc(%r14)
  207a7e:	49 83 c5 ff          	add    $0xffffffffffffffff,%r13
  207a82:	0f 85 28 fe ff ff    	jne    2078b0 <get_sof+0x2c0>
  207a88:	48 8b 6c 24 18       	mov    0x18(%rsp),%rbp
  207a8d:	ff 55 18             	callq  *0x18(%rbp)
  207a90:	85 c0                	test   %eax,%eax
  207a92:	74 12                	je     207aa6 <get_sof+0x4b6>
  207a94:	4c 8b 65 00          	mov    0x0(%rbp),%r12
  207a98:	4c 8b 6d 08          	mov    0x8(%rbp),%r13
  207a9c:	48 8b 7c 24 10       	mov    0x10(%rsp),%rdi
  207aa1:	e9 0e fe ff ff       	jmpq   2078b4 <get_sof+0x2c4>
  207aa6:	31 c0                	xor    %eax,%eax
  207aa8:	eb 1f                	jmp    207ac9 <get_sof+0x4d9>
  207aaa:	48 8b 87 68 02 00 00 	mov    0x268(%rdi),%rax
  207ab1:	c7 40 1c 01 00 00 00 	movl   $0x1,0x1c(%rax)
  207ab8:	48 8b 44 24 18       	mov    0x18(%rsp),%rax
  207abd:	4c 89 20             	mov    %r12,(%rax)
  207ac0:	4c 89 68 08          	mov    %r13,0x8(%rax)
  207ac4:	b8 01 00 00 00       	mov    $0x1,%eax
  207ac9:	48 83 c4 28          	add    $0x28,%rsp
  207acd:	5b                   	pop    %rbx
  207ace:	41 5c                	pop    %r12
  207ad0:	41 5d                	pop    %r13
  207ad2:	41 5e                	pop    %r14
  207ad4:	41 5f                	pop    %r15
  207ad6:	5d                   	pop    %rbp
  207ad7:	c3                   	retq   
  207ad8:	cc                   	int3   
  207ad9:	cc                   	int3   
  207ada:	cc                   	int3   
  207adb:	cc                   	int3   
  207adc:	cc                   	int3   
  207add:	cc                   	int3   
  207ade:	cc                   	int3   
  207adf:	cc                   	int3   

0000000000207ae0 <get_sos>:
  207ae0:	55                   	push   %rbp
  207ae1:	41 57                	push   %r15
  207ae3:	41 56                	push   %r14
  207ae5:	41 55                	push   %r13
  207ae7:	41 54                	push   %r12
  207ae9:	53                   	push   %rbx
  207aea:	48 83 ec 28          	sub    $0x28,%rsp
  207aee:	49 89 fe             	mov    %rdi,%r14
  207af1:	48 8b 47 28          	mov    0x28(%rdi),%rax
  207af5:	48 8b 08             	mov    (%rax),%rcx
  207af8:	48 89 04 24          	mov    %rax,(%rsp)
  207afc:	48 8b 68 08          	mov    0x8(%rax),%rbp
  207b00:	48 8b 87 68 02 00 00 	mov    0x268(%rdi),%rax
  207b07:	83 78 1c 00          	cmpl   $0x0,0x1c(%rax)
  207b0b:	74 07                	je     207b14 <get_sos+0x34>
  207b0d:	48 85 ed             	test   %rbp,%rbp
  207b10:	75 4f                	jne    207b61 <get_sos+0x81>
  207b12:	eb 30                	jmp    207b44 <get_sos+0x64>
  207b14:	49 8b 3e             	mov    (%r14),%rdi
  207b17:	c7 47 28 3c 00 00 00 	movl   $0x3c,0x28(%rdi)
  207b1e:	48 83 c7 2c          	add    $0x2c,%rdi
  207b22:	be 77 19 20 00       	mov    $0x201977,%esi
  207b27:	ba 50 00 00 00       	mov    $0x50,%edx
  207b2c:	48 89 cb             	mov    %rcx,%rbx
  207b2f:	e8 8c 90 01 00       	callq  220bc0 <strncpy@plt>
  207b34:	49 8b 06             	mov    (%r14),%rax
  207b37:	4c 89 f7             	mov    %r14,%rdi
  207b3a:	ff 10                	callq  *(%rax)
  207b3c:	48 89 d9             	mov    %rbx,%rcx
  207b3f:	48 85 ed             	test   %rbp,%rbp
  207b42:	75 1d                	jne    207b61 <get_sos+0x81>
  207b44:	4c 89 f7             	mov    %r14,%rdi
  207b47:	48 8b 2c 24          	mov    (%rsp),%rbp
  207b4b:	ff 55 18             	callq  *0x18(%rbp)
  207b4e:	85 c0                	test   %eax,%eax
  207b50:	0f 84 67 04 00 00    	je     207fbd <get_sos+0x4dd>
  207b56:	48 89 e8             	mov    %rbp,%rax
  207b59:	48 8b 4d 00          	mov    0x0(%rbp),%rcx
  207b5d:	48 8b 6d 08          	mov    0x8(%rbp),%rbp
  207b61:	0f b6 19             	movzbl (%rcx),%ebx
  207b64:	48 83 c5 ff          	add    $0xffffffffffffffff,%rbp
  207b68:	74 06                	je     207b70 <get_sos+0x90>
  207b6a:	48 83 c1 01          	add    $0x1,%rcx
  207b6e:	eb 1d                	jmp    207b8d <get_sos+0xad>
  207b70:	4c 89 f7             	mov    %r14,%rdi
  207b73:	48 8b 2c 24          	mov    (%rsp),%rbp
  207b77:	ff 55 18             	callq  *0x18(%rbp)
  207b7a:	85 c0                	test   %eax,%eax
  207b7c:	0f 84 3b 04 00 00    	je     207fbd <get_sos+0x4dd>
  207b82:	48 89 e8             	mov    %rbp,%rax
  207b85:	48 8b 4d 00          	mov    0x0(%rbp),%rcx
  207b89:	48 8b 6d 08          	mov    0x8(%rbp),%rbp
  207b8d:	44 0f b6 39          	movzbl (%rcx),%r15d
  207b91:	48 83 c5 ff          	add    $0xffffffffffffffff,%rbp
  207b95:	74 06                	je     207b9d <get_sos+0xbd>
  207b97:	48 83 c1 01          	add    $0x1,%rcx
  207b9b:	eb 1d                	jmp    207bba <get_sos+0xda>
  207b9d:	4c 89 f7             	mov    %r14,%rdi
  207ba0:	48 8b 2c 24          	mov    (%rsp),%rbp
  207ba4:	ff 55 18             	callq  *0x18(%rbp)
  207ba7:	85 c0                	test   %eax,%eax
  207ba9:	0f 84 0e 04 00 00    	je     207fbd <get_sos+0x4dd>
  207baf:	48 89 e8             	mov    %rbp,%rax
  207bb2:	48 8b 4d 00          	mov    0x0(%rbp),%rcx
  207bb6:	48 8b 6d 08          	mov    0x8(%rbp),%rbp
  207bba:	49 89 cc             	mov    %rcx,%r12
  207bbd:	44 0f b6 29          	movzbl (%rcx),%r13d
  207bc1:	49 8b 06             	mov    (%r14),%rax
  207bc4:	c7 40 28 69 00 00 00 	movl   $0x69,0x28(%rax)
  207bcb:	44 89 68 2c          	mov    %r13d,0x2c(%rax)
  207bcf:	49 8b 06             	mov    (%r14),%rax
  207bd2:	4c 89 f7             	mov    %r14,%rdi
  207bd5:	be 01 00 00 00       	mov    $0x1,%esi
  207bda:	ff 50 08             	callq  *0x8(%rax)
  207bdd:	41 83 fd 04          	cmp    $0x4,%r13d
  207be1:	77 5d                	ja     207c40 <get_sos+0x160>
  207be3:	48 c1 e3 08          	shl    $0x8,%rbx
  207be7:	49 09 df             	or     %rbx,%r15
  207bea:	4a 8d 04 2d 06 00 00 	lea    0x6(,%r13,1),%rax
  207bf1:	00 
  207bf2:	4c 01 e8             	add    %r13,%rax
  207bf5:	49 39 c7             	cmp    %rax,%r15
  207bf8:	75 46                	jne    207c40 <get_sos+0x160>
  207bfa:	45 84 ed             	test   %r13b,%r13b
  207bfd:	74 17                	je     207c16 <get_sos+0x136>
  207bff:	45 89 ae c0 01 00 00 	mov    %r13d,0x1c0(%r14)
  207c06:	4c 89 e1             	mov    %r12,%rcx
  207c09:	48 83 c1 01          	add    $0x1,%rcx
  207c0d:	48 83 c5 ff          	add    $0xffffffffffffffff,%rbp
  207c11:	0f 94 c0             	sete   %al
  207c14:	eb 57                	jmp    207c6d <get_sos+0x18d>
  207c16:	41 83 be 3c 01 00 00 	cmpl   $0x0,0x13c(%r14)
  207c1d:	00 
  207c1e:	74 20                	je     207c40 <get_sos+0x160>
  207c20:	45 89 ae c0 01 00 00 	mov    %r13d,0x1c0(%r14)
  207c27:	41 b7 01             	mov    $0x1,%r15b
  207c2a:	48 83 c5 ff          	add    $0xffffffffffffffff,%rbp
  207c2e:	0f 84 78 02 00 00    	je     207eac <get_sos+0x3cc>
  207c34:	4c 89 e1             	mov    %r12,%rcx
  207c37:	48 83 c1 01          	add    $0x1,%rcx
  207c3b:	e9 89 02 00 00       	jmpq   207ec9 <get_sos+0x3e9>
  207c40:	49 8b 06             	mov    (%r14),%rax
  207c43:	c7 40 28 0c 00 00 00 	movl   $0xc,0x28(%rax)
